
========================================================================

** ELF Header Information

    File Name: C:\root\Workspace\Code\gd32-pio-wifi-sdk\MBL\project\KEIL\mbl_ns\Objects\\mbl-ns.axf

    Machine class: ELFCLASS32 (32-bit)
    Data encoding: ELFDATA2LSB (Little endian)
    Header version: EV_CURRENT (Current version)
    Operating System ABI: none
    ABI Version: 0
    File Type: ET_EXEC (Executable) (2)
    Machine: EM_ARM (ARM)

    Image Entry point: 0x080001d9
    Flags: EF_ARM_HASENTRY (0x05000002)

    ARM ELF revision: 5 (ABI version 2)

    Conforms to Base float procedure-call standard

    Built with
    Component: ARM Compiler 6.12 Tool: armasm [5d624500]
    Component: ARM Compiler 6.12 Tool: armlink [5d624300]

    Header size: 52 bytes (0x34)
    Program header entry size: 32 bytes (0x20)
    Section header entry size: 40 bytes (0x28)

    Program header entries: 2
    Section header entries: 19

    Program header offset: 174708 (0x0002aa74)
    Section header offset: 174772 (0x0002aab4)

    Section header string table index: 18

========================================================================

** Program header #0 (PT_LOAD) [PF_X + PF_W + PF_R + PF_ARM_ENTRY]
    Size : 23972 bytes (15776 bytes in file)
    Virtual address: 0x08000000 (Alignment 16)


====================================

** Program header #1 (PT_LOAD) [PF_R]
    Size : 256 bytes
    Virtual address: 0x08007c00 (Alignment 4)


========================================================================

** Section #1 'MBL_CODE' (SHT_PROGBITS) [SHF_ALLOC + SHF_EXECINSTR]
    Size   : 13316 bytes (alignment 4)
    Address: 0x08000000

    $d.realdata
    RESET
    __Vectors
        0x08000000:    20002ba0    .+.     DCD    536882080
        0x08000004:    080001ed    ....    DCD    134218221
        0x08000008:    080001f5    ....    DCD    134218229
        0x0800000c:    080001f7    ....    DCD    134218231
        0x08000010:    080001f9    ....    DCD    134218233
        0x08000014:    080001fb    ....    DCD    134218235
        0x08000018:    080001fd    ....    DCD    134218237
        0x0800001c:    080001ff    ....    DCD    134218239
        0x08000020:    00000000    ....    DCD    0
        0x08000024:    00000000    ....    DCD    0
        0x08000028:    00000000    ....    DCD    0
        0x0800002c:    08000201    ....    DCD    134218241
        0x08000030:    08000203    ....    DCD    134218243
        0x08000034:    00000000    ....    DCD    0
        0x08000038:    08000205    ....    DCD    134218245
        0x0800003c:    08000207    ....    DCD    134218247
        0x08000040:    08000209    ....    DCD    134218249
        0x08000044:    08000209    ....    DCD    134218249
        0x08000048:    08000209    ....    DCD    134218249
        0x0800004c:    08000209    ....    DCD    134218249
        0x08000050:    08000209    ....    DCD    134218249
        0x08000054:    08000209    ....    DCD    134218249
        0x08000058:    08000209    ....    DCD    134218249
        0x0800005c:    08000209    ....    DCD    134218249
        0x08000060:    08000209    ....    DCD    134218249
        0x08000064:    08000209    ....    DCD    134218249
        0x08000068:    08000209    ....    DCD    134218249
        0x0800006c:    08000209    ....    DCD    134218249
        0x08000070:    08000209    ....    DCD    134218249
        0x08000074:    08000209    ....    DCD    134218249
        0x08000078:    08000209    ....    DCD    134218249
        0x0800007c:    08000209    ....    DCD    134218249
        0x08000080:    08000209    ....    DCD    134218249
        0x08000084:    08000209    ....    DCD    134218249
        0x08000088:    08000209    ....    DCD    134218249
        0x0800008c:    08000209    ....    DCD    134218249
        0x08000090:    08000209    ....    DCD    134218249
        0x08000094:    08000209    ....    DCD    134218249
        0x08000098:    08000209    ....    DCD    134218249
        0x0800009c:    08000209    ....    DCD    134218249
        0x080000a0:    08000209    ....    DCD    134218249
        0x080000a4:    08000209    ....    DCD    134218249
        0x080000a8:    08000209    ....    DCD    134218249
        0x080000ac:    08000209    ....    DCD    134218249
        0x080000b0:    08000209    ....    DCD    134218249
        0x080000b4:    08000209    ....    DCD    134218249
        0x080000b8:    08000209    ....    DCD    134218249
        0x080000bc:    08000209    ....    DCD    134218249
        0x080000c0:    08000209    ....    DCD    134218249
        0x080000c4:    08000209    ....    DCD    134218249
        0x080000c8:    08000209    ....    DCD    134218249
        0x080000cc:    08000209    ....    DCD    134218249
        0x080000d0:    08000209    ....    DCD    134218249
        0x080000d4:    08000209    ....    DCD    134218249
        0x080000d8:    08000209    ....    DCD    134218249
        0x080000dc:    08000209    ....    DCD    134218249
        0x080000e0:    08000209    ....    DCD    134218249
        0x080000e4:    08000209    ....    DCD    134218249
        0x080000e8:    08000209    ....    DCD    134218249
        0x080000ec:    00000000    ....    DCD    0
        0x080000f0:    08000209    ....    DCD    134218249
        0x080000f4:    08000209    ....    DCD    134218249
        0x080000f8:    00000000    ....    DCD    0
        0x080000fc:    00000000    ....    DCD    0
        0x08000100:    00000000    ....    DCD    0
        0x08000104:    08000209    ....    DCD    134218249
        0x08000108:    08000209    ....    DCD    134218249
        0x0800010c:    08000209    ....    DCD    134218249
        0x08000110:    08000209    ....    DCD    134218249
        0x08000114:    08000209    ....    DCD    134218249
        0x08000118:    08000209    ....    DCD    134218249
        0x0800011c:    00000000    ....    DCD    0
        0x08000120:    08000209    ....    DCD    134218249
        0x08000124:    08000209    ....    DCD    134218249
        0x08000128:    08000209    ....    DCD    134218249
        0x0800012c:    08000209    ....    DCD    134218249
        0x08000130:    08000209    ....    DCD    134218249
        0x08000134:    08000209    ....    DCD    134218249
        0x08000138:    08000209    ....    DCD    134218249
        0x0800013c:    08000209    ....    DCD    134218249
        0x08000140:    00000000    ....    DCD    0
        0x08000144:    00000000    ....    DCD    0
        0x08000148:    08000209    ....    DCD    134218249
        0x0800014c:    08000209    ....    DCD    134218249
        0x08000150:    00000000    ....    DCD    0
        0x08000154:    00000000    ....    DCD    0
        0x08000158:    00000000    ....    DCD    0
        0x0800015c:    00000000    ....    DCD    0
        0x08000160:    00000000    ....    DCD    0
        0x08000164:    00000000    ....    DCD    0
        0x08000168:    00000000    ....    DCD    0
        0x0800016c:    00000000    ....    DCD    0
        0x08000170:    08000209    ....    DCD    134218249
        0x08000174:    00000000    ....    DCD    0
        0x08000178:    08000209    ....    DCD    134218249
        0x0800017c:    08000209    ....    DCD    134218249
        0x08000180:    08000209    ....    DCD    134218249
        0x08000184:    08000209    ....    DCD    134218249
        0x08000188:    00000000    ....    DCD    0
        0x0800018c:    00000000    ....    DCD    0
        0x08000190:    00000000    ....    DCD    0
        0x08000194:    00000000    ....    DCD    0
        0x08000198:    00000000    ....    DCD    0
        0x0800019c:    00000000    ....    DCD    0
        0x080001a0:    00000000    ....    DCD    0
        0x080001a4:    08000209    ....    DCD    134218249
        0x080001a8:    08000209    ....    DCD    134218249
        0x080001ac:    08000209    ....    DCD    134218249
        0x080001b0:    08000209    ....    DCD    134218249
        0x080001b4:    08000209    ....    DCD    134218249
        0x080001b8:    08000209    ....    DCD    134218249
        0x080001bc:    08000209    ....    DCD    134218249
        0x080001c0:    08000209    ....    DCD    134218249
        0x080001c4:    08000209    ....    DCD    134218249
        0x080001c8:    08000209    ....    DCD    134218249
        0x080001cc:    08000209    ....    DCD    134218249
        0x080001d0:    08000209    ....    DCD    134218249
        0x080001d4:    08000209    ....    DCD    134218249
    $t
    .ARM.Collect$$$$00000000
    .ARM.Collect$$$$00000002
    __Vectors_End
    __main
    _main_stk
        0x080001d8:    f8dfd00c    ....    LDR      sp,__lit__00000000 ; [0x80001e8] = 0x20002ba0
    .ARM.Collect$$$$00000004
    _main_scatterload
        0x080001dc:    f000f83e    ..>.    BL       __scatterload ; 0x800025c
    .ARM.Collect$$$$00000008
    .ARM.Collect$$$$0000000A
    .ARM.Collect$$$$0000000B
    __main_after_scatterload
    _main_clock
    _main_cpp_init
    _main_init
        0x080001e0:    4800        .H      LDR      r0,[pc,#0] ; [0x80001e4] = 0x8001c69
        0x080001e2:    4700        .G      BX       r0
    $d
        0x080001e4:    08001c69    i...    DCD    134225001
    .ARM.Collect$$$$00002713
    __lit__00000000
    .ARM.Collect$$$$0000000D
    .ARM.Collect$$$$0000000F
    __rt_final_cpp
    __rt_final_exit
        0x080001e8:    20002ba0    .+.     DCD    536882080
    $t
    .text
    $v0
    Reset_Handler
        0x080001ec:    4807        .H      LDR      r0,[pc,#28] ; [0x800020c] = 0x8000281
        0x080001ee:    4780        .G      BLX      r0
        0x080001f0:    4807        .H      LDR      r0,[pc,#28] ; [0x8000210] = 0x80001d9
        0x080001f2:    4700        .G      BX       r0
    NMI_Handler
        0x080001f4:    e7fe        ..      B        NMI_Handler ; 0x80001f4
    HardFault_Handler
        0x080001f6:    e7fe        ..      B        HardFault_Handler ; 0x80001f6
    MemManage_Handler
        0x080001f8:    e7fe        ..      B        MemManage_Handler ; 0x80001f8
    BusFault_Handler
        0x080001fa:    e7fe        ..      B        BusFault_Handler ; 0x80001fa
    UsageFault_Handler
        0x080001fc:    e7fe        ..      B        UsageFault_Handler ; 0x80001fc
    SecureFault_Handler
        0x080001fe:    e7fe        ..      B        SecureFault_Handler ; 0x80001fe
    SVC_Handler
        0x08000200:    e7fe        ..      B        SVC_Handler ; 0x8000200
    DebugMon_Handler
        0x08000202:    e7fe        ..      B        DebugMon_Handler ; 0x8000202
    PendSV_Handler
        0x08000204:    e7fe        ..      B        PendSV_Handler ; 0x8000204
    SysTick_Handler
        0x08000206:    e7fe        ..      B        SysTick_Handler ; 0x8000206
    ADC_IRQHandler
    CAU_IRQHandler
    DCI_IRHandler
    DMA0_Channel0_IRQHandler
    DMA0_Channel1_IRQHandler
    DMA0_Channel2_IRQHandler
    DMA0_Channel3_IRQHandler
    DMA0_Channel4_IRQHandler
    DMA0_Channel5_IRQHandler
    DMA0_Channel6_IRQHandler
    DMA0_Channel7_IRQHandler
    DMA1_Channel0_IRQHandler
    DMA1_Channel1_IRQHandler
    DMA1_Channel2_IRQHandler
    DMA1_Channel3_IRQHandler
    DMA1_Channel4_IRQHandler
    DMA1_Channel5_IRQHandler
    DMA1_Channel6_IRQHandler
    DMA1_Channel7_IRQHandler
    EFUSE_IRQHandler
    EXTI0_IRQHandler
    EXTI10_15_IRQHandler
    EXTI1_IRQHandler
    EXTI2_IRQHandler
    EXTI3_IRQHandler
    EXTI4_IRQHandler
    EXTI5_9_IRQHandler
    FMC_IRQHandler
    FMC_S_IRQHandler
    FPU_IRQHandler
    HAU_TRNG_IRQHandler
    HPDF_INT0_IRQHandler
    HPDF_INT1_IRQHandler
    I2C0_ER_IRQHandler
    I2C0_EV_IRQHandler
    I2C0_WKUP_IRQHandler
    I2C1_ER_IRQHandler
    I2C1_EV_IRQHandler
    ICACHE_IRQHandler
    LVD_IRQHandler
    PKCAU_IRQHandler
    PVM_IRQHandler
    QSPI_IRQHandler
    QSPI_S_IRQHandler
    RCU_IRQHandler
    RTC_Alarm_IRQHandler
    RTC_Alarm_S_IRQHandler
    RTC_WKUP_IRQHandler
    RTC_WKUP_S_IRQHandler
    SDIO_IRQHandler
    SPI0_IRQHandler
    SPI1_IRQHandler
    TAMPER_STAMP_IRQHandler
    TAMP_STAMP_S_IRQHandler
    TIMER0_BRK_IRQHandler
    TIMER0_CMT_IRQHandler
    TIMER0_Channel_IRQHandler
    TIMER0_UP_IRQHandler
    TIMER15_IRQHandler
    TIMER16_IRQHandler
    TIMER1_IRQHandler
    TIMER2_IRQHandler
    TIMER3_IRQHandler
    TIMER4_IRQHandler
    TIMER5_IRQHandler
    TSI_IRQHandler
    TZIAC_S_IRQHandler
    USART0_IRQHandler
    USART0_WKUP_IRQHandler
    USART1_IRQHandler
    USART2_IRQHandler
    USART2_WKUP_IRQHandler
    USBFS_IRQHandler
    USBFS_WKUP_IRQHandler
    WLAN_Cmn_IRQHandler
    WLAN_Rx_IRQHandler
    WLAN_Tx_IRQHandler
    WLAN_WKUP_IRQHandler
    WWDGT_IRQHandler
        0x08000208:    e7fe        ..      B        ADC_IRQHandler ; 0x8000208
    $d
        0x0800020a:    0000        ..      DCW    0
        0x0800020c:    08000281    ....    DCD    134218369
        0x08000210:    080001d9    ....    DCD    134218201
    $t
    .text
    __aeabi_memcpy
    __aeabi_memcpy4
    __aeabi_memcpy8
        0x08000214:    ea400301    @...    ORR      r3,r0,r1
        0x08000218:    079b        ..      LSLS     r3,r3,#30
        0x0800021a:    d003        ..      BEQ      0x8000224 ; __aeabi_memcpy + 16
        0x0800021c:    e009        ..      B        0x8000232 ; __aeabi_memcpy + 30
        0x0800021e:    c908        ..      LDM      r1!,{r3}
        0x08000220:    1f12        ..      SUBS     r2,r2,#4
        0x08000222:    c008        ..      STM      r0!,{r3}
        0x08000224:    2a04        .*      CMP      r2,#4
        0x08000226:    d2fa        ..      BCS      0x800021e ; __aeabi_memcpy + 10
        0x08000228:    e003        ..      B        0x8000232 ; __aeabi_memcpy + 30
        0x0800022a:    f8113b01    ...;    LDRB     r3,[r1],#1
        0x0800022e:    f8003b01    ...;    STRB     r3,[r0],#1
        0x08000232:    1e52        R.      SUBS     r2,r2,#1
        0x08000234:    d2f9        ..      BCS      0x800022a ; __aeabi_memcpy + 22
        0x08000236:    4770        pG      BX       lr
    .text
    __aeabi_memset
    __aeabi_memset4
    __aeabi_memset8
        0x08000238:    b2d2        ..      UXTB     r2,r2
        0x0800023a:    e001        ..      B        0x8000240 ; __aeabi_memset + 8
        0x0800023c:    f8002b01    ...+    STRB     r2,[r0],#1
        0x08000240:    1e49        I.      SUBS     r1,r1,#1
        0x08000242:    d2fb        ..      BCS      0x800023c ; __aeabi_memset + 4
        0x08000244:    4770        pG      BX       lr
    __aeabi_memclr
    __aeabi_memclr4
    __aeabi_memclr8
        0x08000246:    2200        ."      MOVS     r2,#0
        0x08000248:    e7f6        ..      B        __aeabi_memset ; 0x8000238
    _memset$wrapper
        0x0800024a:    b510        ..      PUSH     {r4,lr}
        0x0800024c:    4613        .F      MOV      r3,r2
        0x0800024e:    460a        .F      MOV      r2,r1
        0x08000250:    4604        .F      MOV      r4,r0
        0x08000252:    4619        .F      MOV      r1,r3
        0x08000254:    f7fffff0    ....    BL       __aeabi_memset ; 0x8000238
        0x08000258:    4620         F      MOV      r0,r4
        0x0800025a:    bd10        ..      POP      {r4,pc}
    .text
    __scatterload
    __scatterload_rt2
        0x0800025c:    4c06        .L      LDR      r4,[pc,#24] ; [0x8000278] = 0x80033d4
        0x0800025e:    4d07        .M      LDR      r5,[pc,#28] ; [0x800027c] = 0x8003404
        0x08000260:    e006        ..      B        0x8000270 ; __scatterload + 20
        0x08000262:    68e0        .h      LDR      r0,[r4,#0xc]
        0x08000264:    f0400301    @...    ORR      r3,r0,#1
        0x08000268:    e8940007    ....    LDM      r4,{r0-r2}
        0x0800026c:    4798        .G      BLX      r3
        0x0800026e:    3410        .4      ADDS     r4,r4,#0x10
        0x08000270:    42ac        .B      CMP      r4,r5
        0x08000272:    d3f6        ..      BCC      0x8000262 ; __scatterload + 6
        0x08000274:    f7ffffb4    ....    BL       __main_after_scatterload ; 0x80001e0
    $d
        0x08000278:    080033d4    .3..    DCD    134230996
        0x0800027c:    08003404    .4..    DCD    134231044
    $t.1
    SystemInit
        0x08000280:    b580        ..      PUSH     {r7,lr}
        0x08000282:    b082        ..      SUB      sp,sp,#8
        0x08000284:    f2400000    @...    MOVW     r0,#0
        0x08000288:    f64e5188    N..Q    MOV      r1,#0xed88
        0x0800028c:    f6c00000    ....    MOVT     r0,#0x800
        0x08000290:    f2ce0100    ....    MOVT     r1,#0xe000
        0x08000294:    f8410c80    A...    STR      r0,[r1,#-0x80]
        0x08000298:    6808        .h      LDR      r0,[r1,#0]
        0x0800029a:    f4400270    @.p.    ORR      r2,r0,#0xf00000
        0x0800029e:    f6430000    C...    MOVW     r0,#0x3800
        0x080002a2:    f2c40002    ....    MOVT     r0,#0x4002
        0x080002a6:    600a        .`      STR      r2,[r1,#0]
        0x080002a8:    6801        .h      LDR      r1,[r0,#0]
        0x080002aa:    f4412180    A..!    ORR      r1,r1,#0x40000
        0x080002ae:    6001        .`      STR      r1,[r0,#0]
        0x080002b0:    2100        .!      MOVS     r1,#0
        0x080002b2:    9101        ..      STR      r1,[sp,#4]
        0x080002b4:    9901        ..      LDR      r1,[sp,#4]
        0x080002b6:    291f        .)      CMP      r1,#0x1f
        0x080002b8:    dc18        ..      BGT      0x80002ec ; SystemInit + 108
        0x080002ba:    bf00        ..      NOP      
        0x080002bc:    9901        ..      LDR      r1,[sp,#4]
        0x080002be:    3101        .1      ADDS     r1,#1
        0x080002c0:    9101        ..      STR      r1,[sp,#4]
        0x080002c2:    9901        ..      LDR      r1,[sp,#4]
        0x080002c4:    2920         )      CMP      r1,#0x20
        0x080002c6:    da11        ..      BGE      0x80002ec ; SystemInit + 108
        0x080002c8:    9901        ..      LDR      r1,[sp,#4]
        0x080002ca:    3101        .1      ADDS     r1,#1
        0x080002cc:    9101        ..      STR      r1,[sp,#4]
        0x080002ce:    9901        ..      LDR      r1,[sp,#4]
        0x080002d0:    291f        .)      CMP      r1,#0x1f
        0x080002d2:    dc0b        ..      BGT      0x80002ec ; SystemInit + 108
        0x080002d4:    9901        ..      LDR      r1,[sp,#4]
        0x080002d6:    3101        .1      ADDS     r1,#1
        0x080002d8:    9101        ..      STR      r1,[sp,#4]
        0x080002da:    9901        ..      LDR      r1,[sp,#4]
        0x080002dc:    291f        .)      CMP      r1,#0x1f
        0x080002de:    dc05        ..      BGT      0x80002ec ; SystemInit + 108
        0x080002e0:    9901        ..      LDR      r1,[sp,#4]
        0x080002e2:    3101        .1      ADDS     r1,#1
        0x080002e4:    9101        ..      STR      r1,[sp,#4]
        0x080002e6:    9901        ..      LDR      r1,[sp,#4]
        0x080002e8:    2920         )      CMP      r1,#0x20
        0x080002ea:    dbe7        ..      BLT      0x80002bc ; SystemInit + 60
        0x080002ec:    6881        .h      LDR      r1,[r0,#8]
        0x080002ee:    f64f72ff    O..r    MOV      r2,#0xffff
        0x080002f2:    f0210103    !...    BIC      r1,r1,#3
        0x080002f6:    6081        .`      STR      r1,[r0,#8]
        0x080002f8:    6801        .h      LDR      r1,[r0,#0]
        0x080002fa:    f6cf62f6    ...b    MOVT     r2,#0xfef6
        0x080002fe:    4011        .@      ANDS     r1,r1,r2
        0x08000300:    6001        .`      STR      r1,[r0,#0]
        0x08000302:    f44f4114    O..A    MOV      r1,#0x9400
        0x08000306:    6081        .`      STR      r1,[r0,#8]
        0x08000308:    f2430110    C...    MOV      r1,#0x3010
        0x0800030c:    6041        A`      STR      r1,[r0,#4]
        0x0800030e:    f002fe19    ....    BL       system_clock_180m_40m_hxtal ; 0x8002f44
        0x08000312:    b002        ..      ADD      sp,sp,#8
        0x08000314:    e8bd4080    ...@    POP      {r7,lr}
        0x08000318:    f001bc70    ..p.    B.W      icache_enable ; 0x8001bfc
    active_header_get
        0x0800031c:    e92d4ff0    -..O    PUSH     {r4-r11,lr}
        0x08000320:    b097        ..      SUB      sp,sp,#0x5c
        0x08000322:    4689        .F      MOV      r9,r1
        0x08000324:    4605        .F      MOV      r5,r0
        0x08000326:    a906        ..      ADD      r1,sp,#0x18
        0x08000328:    f44f4000    O..@    MOV      r0,#0x8000
        0x0800032c:    2210        ."      MOVS     r2,#0x10
        0x0800032e:    f000fca1    ....    BL       flash_indirect_read ; 0x8000c74
        0x08000332:    b118        ..      CBZ      r0,0x800033c ; active_header_get + 32
        0x08000334:    2001        .       MOVS     r0,#1
        0x08000336:    b017        ..      ADD      sp,sp,#0x5c
        0x08000338:    e8bd8ff0    ....    POP      {r4-r11,pc}
        0x0800033c:    f2465a64    F.dZ    MOV      r10,#0x6564
        0x08000340:    f6461b67    F.g.    MOV      r11,#0x6967
        0x08000344:    f6471873    G.s.    MOV      r8,#0x7973
        0x08000348:    f2465063    F.cP    MOV      r0,#0x6563
        0x0800034c:    ae0a        ..      ADD      r6,sp,#0x28
        0x0800034e:    f6c61a76    ..v.    MOVT     r10,#0x6976
        0x08000352:    f2c61b67    ..g.    MOVT     r11,#0x6167
        0x08000356:    f6c57873    ..sx    MOVT     r8,#0x5f73
        0x0800035a:    900d        ..      STR      r0,[sp,#0x34]
        0x0800035c:    4630        0F      MOV      r0,r6
        0x0800035e:    2110        .!      MOVS     r1,#0x10
        0x08000360:    4632        2F      MOV      r2,r6
        0x08000362:    f8cda030    ..0.    STR      r10,[sp,#0x30]
        0x08000366:    f8cdb02c    ..,.    STR      r11,[sp,#0x2c]
        0x0800036a:    f8cd8028    ..(.    STR      r8,[sp,#0x28]
        0x0800036e:    f002ffa3    ....    BL       $Ven$TT$L$$mbedtls_md5_ret ; 0x80032b8
        0x08000372:    af0e        ..      ADD      r7,sp,#0x38
        0x08000374:    4638        8F      MOV      r0,r7
        0x08000376:    f002ffa4    ....    BL       $Ven$TT$L$$mbedtls_aes_init ; 0x80032c2
        0x0800037a:    4638        8F      MOV      r0,r7
        0x0800037c:    4631        1F      MOV      r1,r6
        0x0800037e:    2280        ."      MOVS     r2,#0x80
        0x08000380:    f002ffa4    ....    BL       $Ven$TT$L$$mbedtls_aes_setkey_dec ; 0x80032cc
        0x08000384:    aa06        ..      ADD      r2,sp,#0x18
        0x08000386:    4638        8F      MOV      r0,r7
        0x08000388:    2100        .!      MOVS     r1,#0
        0x0800038a:    4613        .F      MOV      r3,r2
        0x0800038c:    2400        .$      MOVS     r4,#0
        0x0800038e:    f002ffa2    ....    BL       $Ven$TT$L$$mbedtls_aes_crypt_ecb ; 0x80032d6
        0x08000392:    4606        .F      MOV      r6,r0
        0x08000394:    4638        8F      MOV      r0,r7
        0x08000396:    e9cd440c    ...D    STRD     r4,r4,[sp,#0x30]
        0x0800039a:    e9cd440a    ...D    STRD     r4,r4,[sp,#0x28]
        0x0800039e:    f002ff9f    ....    BL       $Ven$TT$L$$mbedtls_aes_free ; 0x80032e0
        0x080003a2:    b11e        ..      CBZ      r6,0x80003ac ; active_header_get + 144
        0x080003a4:    2040        @       MOVS     r0,#0x40
        0x080003a6:    b017        ..      ADD      sp,sp,#0x5c
        0x080003a8:    e8bd8ff0    ....    POP      {r4-r11,pc}
        0x080003ac:    e9dd4607    ...F    LDRD     r4,r6,[sp,#0x1c]
        0x080003b0:    a902        ..      ADD      r1,sp,#8
        0x080003b2:    f44f4010    O..@    MOV      r0,#0x9000
        0x080003b6:    2210        ."      MOVS     r2,#0x10
        0x080003b8:    f000fc5c    ..\.    BL       flash_indirect_read ; 0x8000c74
        0x080003bc:    2800        .(      CMP      r0,#0
        0x080003be:    d1b9        ..      BNE      0x8000334 ; active_header_get + 24
        0x080003c0:    e9cd4600    ...F    STRD     r4,r6,[sp,#0]
        0x080003c4:    f2465063    F.cP    MOV      r0,#0x6563
        0x080003c8:    ae0a        ..      ADD      r6,sp,#0x28
        0x080003ca:    f8cda030    ..0.    STR      r10,[sp,#0x30]
        0x080003ce:    e9cd8b0a    ....    STRD     r8,r11,[sp,#0x28]
        0x080003d2:    900d        ..      STR      r0,[sp,#0x34]
        0x080003d4:    4630        0F      MOV      r0,r6
        0x080003d6:    2110        .!      MOVS     r1,#0x10
        0x080003d8:    4632        2F      MOV      r2,r6
        0x080003da:    f002ff6d    ..m.    BL       $Ven$TT$L$$mbedtls_md5_ret ; 0x80032b8
        0x080003de:    af0e        ..      ADD      r7,sp,#0x38
        0x080003e0:    4638        8F      MOV      r0,r7
        0x080003e2:    f002ff6e    ..n.    BL       $Ven$TT$L$$mbedtls_aes_init ; 0x80032c2
        0x080003e6:    4638        8F      MOV      r0,r7
        0x080003e8:    4631        1F      MOV      r1,r6
        0x080003ea:    2280        ."      MOVS     r2,#0x80
        0x080003ec:    f002ff6e    ..n.    BL       $Ven$TT$L$$mbedtls_aes_setkey_dec ; 0x80032cc
        0x080003f0:    aa02        ..      ADD      r2,sp,#8
        0x080003f2:    4638        8F      MOV      r0,r7
        0x080003f4:    2100        .!      MOVS     r1,#0
        0x080003f6:    4613        .F      MOV      r3,r2
        0x080003f8:    2400        .$      MOVS     r4,#0
        0x080003fa:    f002ff6c    ..l.    BL       $Ven$TT$L$$mbedtls_aes_crypt_ecb ; 0x80032d6
        0x080003fe:    4606        .F      MOV      r6,r0
        0x08000400:    4638        8F      MOV      r0,r7
        0x08000402:    e9cd440c    ...D    STRD     r4,r4,[sp,#0x30]
        0x08000406:    e9cd440a    ...D    STRD     r4,r4,[sp,#0x28]
        0x0800040a:    f002ff69    ..i.    BL       $Ven$TT$L$$mbedtls_aes_free ; 0x80032e0
        0x0800040e:    2e00        ..      CMP      r6,#0
        0x08000410:    d1c8        ..      BNE      0x80003a4 ; active_header_get + 136
        0x08000412:    9b04        ..      LDR      r3,[sp,#0x10]
        0x08000414:    f2427250    B.Pr    MOV      r2,#0x2750
        0x08000418:    f6c11234    ..4.    MOVT     r2,#0x1934
        0x0800041c:    1a99        ..      SUBS     r1,r3,r2
        0x0800041e:    9803        ..      LDR      r0,[sp,#0xc]
        0x08000420:    bf18        ..      IT       NE
        0x08000422:    2101        .!      MOVNE    r1,#1
        0x08000424:    9f01        ..      LDR      r7,[sp,#4]
        0x08000426:    4297        .B      CMP      r7,r2
        0x08000428:    bf1f        ..      ITTTT    NE
        0x0800042a:    4293        .B      CMPNE    r3,r2
        0x0800042c:    2008        .       MOVNE    r0,#8
        0x0800042e:    b017        ..      ADDNE    sp,sp,#0x5c
        0x08000430:    e8bd8ff0    ....    POPNE    {r4-r11,pc}
        0x08000434:    4293        .B      CMP      r3,r2
        0x08000436:    d101        ..      BNE      0x800043c ; active_header_get + 288
        0x08000438:    4297        .B      CMP      r7,r2
        0x0800043a:    d11e        ..      BNE      0x800047a ; active_header_get + 350
        0x0800043c:    1aba        ..      SUBS     r2,r7,r2
        0x0800043e:    fab2f282    ....    CLZ      r2,r2
        0x08000442:    0952        R.      LSRS     r2,r2,#5
        0x08000444:    420a        .B      TST      r2,r1
        0x08000446:    d10e        ..      BNE      0x8000466 ; active_header_get + 330
        0x08000448:    9a00        ..      LDR      r2,[sp,#0]
        0x0800044a:    f1b231ff    ...1    SUBS     r1,r2,#0xffffffff
        0x0800044e:    bf18        ..      IT       NE
        0x08000450:    4611        .F      MOVNE    r1,r2
        0x08000452:    f1b032ff    ...2    SUBS     r2,r0,#0xffffffff
        0x08000456:    bf18        ..      IT       NE
        0x08000458:    4602        .F      MOVNE    r2,r0
        0x0800045a:    1c50        P.      ADDS     r0,r2,#1
        0x0800045c:    4281        .B      CMP      r1,r0
        0x0800045e:    bf1c        ..      ITT      NE
        0x08000460:    1c90        ..      ADDNE    r0,r2,#2
        0x08000462:    4281        .B      CMPNE    r1,r0
        0x08000464:    d109        ..      BNE      0x800047a ; active_header_get + 350
        0x08000466:    ab06        ..      ADD      r3,sp,#0x18
        0x08000468:    9a09        ..      LDR      r2,[sp,#0x24]
        0x0800046a:    cb0b        ..      LDM      r3,{r0,r1,r3}
        0x0800046c:    60ea        .`      STR      r2,[r5,#0xc]
        0x0800046e:    60ab        .`      STR      r3,[r5,#8]
        0x08000470:    6069        i`      STR      r1,[r5,#4]
        0x08000472:    6028        (`      STR      r0,[r5,#0]
        0x08000474:    f44f4000    O..@    MOV      r0,#0x8000
        0x08000478:    e008        ..      B        0x800048c ; active_header_get + 368
        0x0800047a:    ab02        ..      ADD      r3,sp,#8
        0x0800047c:    9a05        ..      LDR      r2,[sp,#0x14]
        0x0800047e:    cb0b        ..      LDM      r3,{r0,r1,r3}
        0x08000480:    60ea        .`      STR      r2,[r5,#0xc]
        0x08000482:    6028        (`      STR      r0,[r5,#0]
        0x08000484:    f44f4010    O..@    MOV      r0,#0x9000
        0x08000488:    60ab        .`      STR      r3,[r5,#8]
        0x0800048a:    6069        i`      STR      r1,[r5,#4]
        0x0800048c:    f8c90000    ....    STR      r0,[r9,#0]
        0x08000490:    2000        .       MOVS     r0,#0
        0x08000492:    b017        ..      ADD      sp,sp,#0x5c
        0x08000494:    e8bd8ff0    ....    POP      {r4-r11,pc}
    boot_image_find
        0x08000498:    b570        p.      PUSH     {r4-r6,lr}
        0x0800049a:    b082        ..      SUB      sp,sp,#8
        0x0800049c:    4605        .F      MOV      r5,r0
        0x0800049e:    2000        .       MOVS     r0,#0
        0x080004a0:    2900        .)      CMP      r1,#0
        0x080004a2:    f88d0007    ....    STRB     r0,[sp,#7]
        0x080004a6:    f88d0006    ....    STRB     r0,[sp,#6]
        0x080004aa:    d043        C.      BEQ      0x8000534 ; boot_image_find + 156
        0x080004ac:    460c        .F      MOV      r4,r1
        0x080004ae:    f10d0207    ....    ADD      r2,sp,#7
        0x080004b2:    2003        .       MOVS     r0,#3
        0x080004b4:    2101        .!      MOVS     r1,#1
        0x080004b6:    f002f989    ....    BL       sys_status_get ; 0x80027cc
        0x080004ba:    f1b03fff    ...?    CMP      r0,#0xffffffff
        0x080004be:    bfbe        ..      ITTT     LT
        0x080004c0:    f06f0001    o...    MVNLT    r0,#1
        0x080004c4:    b002        ..      ADDLT    sp,sp,#8
        0x080004c6:    bd70        p.      POPLT    {r4-r6,pc}
        0x080004c8:    4606        .F      MOV      r6,r0
        0x080004ca:    f10d0206    ....    ADD      r2,sp,#6
        0x080004ce:    2004        .       MOVS     r0,#4
        0x080004d0:    2101        .!      MOVS     r1,#1
        0x080004d2:    f002f97b    ..{.    BL       sys_status_get ; 0x80027cc
        0x080004d6:    f1b03fff    ...?    CMP      r0,#0xffffffff
        0x080004da:    bfbe        ..      ITTT     LT
        0x080004dc:    f06f0002    o...    MVNLT    r0,#2
        0x080004e0:    b002        ..      ADDLT    sp,sp,#8
        0x080004e2:    bd70        p.      POPLT    {r4-r6,pc}
        0x080004e4:    b12e        ..      CBZ      r6,0x80004f2 ; boot_image_find + 90
        0x080004e6:    2800        .(      CMP      r0,#0
        0x080004e8:    bf02        ..      ITTT     EQ
        0x080004ea:    f06f0003    o...    MVNEQ    r0,#3
        0x080004ee:    b002        ..      ADDEQ    sp,sp,#8
        0x080004f0:    bd70        p.      POPEQ    {r4-r6,pc}
        0x080004f2:    2e00        ..      CMP      r6,#0
        0x080004f4:    bf18        ..      IT       NE
        0x080004f6:    2800        .(      CMPNE    r0,#0
        0x080004f8:    d12b        +.      BNE      0x8000552 ; boot_image_find + 186
        0x080004fa:    b946        F.      CBNZ     r6,0x800050e ; boot_image_find + 118
        0x080004fc:    f89d1007    ....    LDRB     r1,[sp,#7]
        0x08000500:    f0010218    ....    AND      r2,r1,#0x18
        0x08000504:    2a10        .*      CMP      r2,#0x10
        0x08000506:    bf18        ..      IT       NE
        0x08000508:    f0110201    ....    ANDSNE   r2,r1,#1
        0x0800050c:    d128        (.      BNE      0x8000560 ; boot_image_find + 200
        0x0800050e:    b940        @.      CBNZ     r0,0x8000522 ; boot_image_find + 138
        0x08000510:    f89d1006    ....    LDRB     r1,[sp,#6]
        0x08000514:    f0010218    ....    AND      r2,r1,#0x18
        0x08000518:    2a10        .*      CMP      r2,#0x10
        0x0800051a:    bf18        ..      IT       NE
        0x0800051c:    f0110201    ....    ANDSNE   r2,r1,#1
        0x08000520:    d124        $.      BNE      0x800056c ; boot_image_find + 212
        0x08000522:    b95e        ^.      CBNZ     r6,0x800053c ; boot_image_find + 164
        0x08000524:    f89d1007    ....    LDRB     r1,[sp,#7]
        0x08000528:    f001011e    ....    AND      r1,r1,#0x1e
        0x0800052c:    290a        .)      CMP      r1,#0xa
        0x0800052e:    d105        ..      BNE      0x800053c ; boot_image_find + 164
        0x08000530:    2600        .&      MOVS     r6,#0
        0x08000532:    e020         .      B        0x8000576 ; boot_image_find + 222
        0x08000534:    f04f30ff    O..0    MOV      r0,#0xffffffff
        0x08000538:    b002        ..      ADD      sp,sp,#8
        0x0800053a:    bd70        p.      POP      {r4-r6,pc}
        0x0800053c:    b928        (.      CBNZ     r0,0x800054a ; boot_image_find + 178
        0x0800053e:    f89d0006    ....    LDRB     r0,[sp,#6]
        0x08000542:    f000001e    ....    AND      r0,r0,#0x1e
        0x08000546:    280a        .(      CMP      r0,#0xa
        0x08000548:    d014        ..      BEQ      0x8000574 ; boot_image_find + 220
        0x0800054a:    f06f0004    o...    MVN      r0,#4
        0x0800054e:    b002        ..      ADD      sp,sp,#8
        0x08000550:    bd70        p.      POP      {r4-r6,pc}
        0x08000552:    2000        .       MOVS     r0,#0
        0x08000554:    2101        .!      MOVS     r1,#1
        0x08000556:    2201        ."      MOVS     r2,#1
        0x08000558:    2600        .&      MOVS     r6,#0
        0x0800055a:    f001fe53    ..S.    BL       sys_img_flag_set ; 0x8002204
        0x0800055e:    e00a        ..      B        0x8000576 ; boot_image_find + 222
        0x08000560:    f0010106    ....    AND      r1,r1,#6
        0x08000564:    2904        .)      CMP      r1,#4
        0x08000566:    d0d2        ..      BEQ      0x800050e ; boot_image_find + 118
        0x08000568:    2600        .&      MOVS     r6,#0
        0x0800056a:    e004        ..      B        0x8000576 ; boot_image_find + 222
        0x0800056c:    f0010106    ....    AND      r1,r1,#6
        0x08000570:    2904        .)      CMP      r1,#4
        0x08000572:    d0d6        ..      BEQ      0x8000522 ; boot_image_find + 138
        0x08000574:    2601        .&      MOVS     r6,#1
        0x08000576:    f44f4020    O. @    MOV      r0,#0xa000
        0x0800057a:    602e        .`      STR      r6,[r5,#0]
        0x0800057c:    6020         `      STR      r0,[r4,#0]
        0x0800057e:    2000        .       MOVS     r0,#0
        0x08000580:    b002        ..      ADD      sp,sp,#8
        0x08000582:    bd70        p.      POP      {r4-r6,pc}
    checksum_cal
        0x08000584:    b5b0        ..      PUSH     {r4,r5,r7,lr}
        0x08000586:    f0210103    !...    BIC      r1,r1,#3
        0x0800058a:    2900        .)      CMP      r1,#0
        0x0800058c:    d00e        ..      BEQ      0x80005ac ; checksum_cal + 40
        0x0800058e:    3901        .9      SUBS     r1,#1
        0x08000590:    2201        ."      MOVS     r2,#1
        0x08000592:    eb020291    ....    ADD      r2,r2,r1,LSR #2
        0x08000596:    290c        .)      CMP      r1,#0xc
        0x08000598:    f0020c03    ....    AND      r12,r2,#3
        0x0800059c:    d20a        ..      BCS      0x80005b4 ; checksum_cal + 48
        0x0800059e:    2300        .#      MOVS     r3,#0
        0x080005a0:    f04f0e00    O...    MOV      lr,#0
        0x080005a4:    f1bc0f00    ....    CMP      r12,#0
        0x080005a8:    d120         .      BNE      0x80005ec ; checksum_cal + 104
        0x080005aa:    e02f        /.      B        0x800060c ; checksum_cal + 136
        0x080005ac:    f04f0e00    O...    MOV      lr,#0
        0x080005b0:    4670        pF      MOV      r0,lr
        0x080005b2:    bdb0        ..      POP      {r4,r5,r7,pc}
        0x080005b4:    0889        ..      LSRS     r1,r1,#2
        0x080005b6:    f1ac0201    ....    SUB      r2,r12,#1
        0x080005ba:    1a52        R.      SUBS     r2,r2,r1
        0x080005bc:    2300        .#      MOVS     r3,#0
        0x080005be:    f04f0e00    O...    MOV      lr,#0
        0x080005c2:    bf00        ..      NOP      
        0x080005c4:    58c1        .X      LDR      r1,[r0,r3]
        0x080005c6:    18c4        ..      ADDS     r4,r0,r3
        0x080005c8:    ea8e0e01    ....    EOR      lr,lr,r1
        0x080005cc:    e9d41501    ....    LDRD     r1,r5,[r4,#4]
        0x080005d0:    68e4        .h      LDR      r4,[r4,#0xc]
        0x080005d2:    ea81010e    ....    EOR      r1,r1,lr
        0x080005d6:    3204        .2      ADDS     r2,#4
        0x080005d8:    ea810105    ....    EOR      r1,r1,r5
        0x080005dc:    ea840e01    ....    EOR      lr,r4,r1
        0x080005e0:    f1030310    ....    ADD      r3,r3,#0x10
        0x080005e4:    d1ee        ..      BNE      0x80005c4 ; checksum_cal + 64
        0x080005e6:    f1bc0f00    ....    CMP      r12,#0
        0x080005ea:    d00f        ..      BEQ      0x800060c ; checksum_cal + 136
        0x080005ec:    58c1        .X      LDR      r1,[r0,r3]
        0x080005ee:    f1bc0f01    ....    CMP      r12,#1
        0x080005f2:    ea8e0e01    ....    EOR      lr,lr,r1
        0x080005f6:    d009        ..      BEQ      0x800060c ; checksum_cal + 136
        0x080005f8:    4418        .D      ADD      r0,r0,r3
        0x080005fa:    6841        Ah      LDR      r1,[r0,#4]
        0x080005fc:    f1bc0f02    ....    CMP      r12,#2
        0x08000600:    ea8e0e01    ....    EOR      lr,lr,r1
        0x08000604:    bf1c        ..      ITT      NE
        0x08000606:    6880        .h      LDRNE    r0,[r0,#8]
        0x08000608:    ea8e0e00    ....    EORNE    lr,lr,r0
        0x0800060c:    4670        pF      MOV      r0,lr
        0x0800060e:    bdb0        ..      POP      {r4,r5,r7,pc}
    co_printf
        0x08000610:    b083        ..      SUB      sp,sp,#0xc
        0x08000612:    e92d4ff0    -..O    PUSH     {r4-r11,lr}
        0x08000616:    b08a        ..      SUB      sp,sp,#0x28
        0x08000618:    4604        .F      MOV      r4,r0
        0x0800061a:    a813        ..      ADD      r0,sp,#0x4c
        0x0800061c:    c00e        ..      STM      r0!,{r1-r3}
        0x0800061e:    a807        ..      ADD      r0,sp,#0x1c
        0x08000620:    f64c4bcd    L..K    MOV      r11,#0xcccd
        0x08000624:    f10d084c    ..L.    ADD      r8,sp,#0x4c
        0x08000628:    f1000a0b    ....    ADD      r10,r0,#0xb
        0x0800062c:    f1000109    ....    ADD      r1,r0,#9
        0x08000630:    300a        .0      ADDS     r0,r0,#0xa
        0x08000632:    f6cc4bcc    ...K    MOVT     r11,#0xcccc
        0x08000636:    2500        .%      MOVS     r5,#0
        0x08000638:    f8cd8014    ....    STR      r8,[sp,#0x14]
        0x0800063c:    9103        ..      STR      r1,[sp,#0xc]
        0x0800063e:    9004        ..      STR      r0,[sp,#0x10]
        0x08000640:    e008        ..      B        0x8000654 ; co_printf + 68
        0x08000642:    bf00        ..      NOP      
        0x08000644:    f002fd9e    ....    BL       uart_putc ; 0x8003184
        0x08000648:    3501        .5      ADDS     r5,#1
        0x0800064a:    4627        'F      MOV      r7,r4
        0x0800064c:    3401        .4      ADDS     r4,#1
        0x0800064e:    e001        ..      B        0x8000654 ; co_printf + 68
        0x08000650:    463c        <F      MOV      r4,r7
        0x08000652:    e7f7        ..      B        0x8000644 ; co_printf + 52
        0x08000654:    7820         x      LDRB     r0,[r4,#0]
        0x08000656:    2825        %(      CMP      r0,#0x25
        0x08000658:    d002        ..      BEQ      0x8000660 ; co_printf + 80
        0x0800065a:    2800        .(      CMP      r0,#0
        0x0800065c:    d1f2        ..      BNE      0x8000644 ; co_printf + 52
        0x0800065e:    e209        ..      B        0x8000a74 ; co_printf + 1124
        0x08000660:    4627        'F      MOV      r7,r4
        0x08000662:    f8171f01    ....    LDRB     r1,[r7,#1]!
        0x08000666:    2925        %)      CMP      r1,#0x25
        0x08000668:    d0f2        ..      BEQ      0x8000650 ; co_printf + 64
        0x0800066a:    292d        -)      CMP      r1,#0x2d
        0x0800066c:    d006        ..      BEQ      0x800067c ; co_printf + 108
        0x0800066e:    2900        .)      CMP      r1,#0
        0x08000670:    f0008200    ....    BEQ.W    0x8000a74 ; co_printf + 1124
        0x08000674:    2600        .&      MOVS     r6,#0
        0x08000676:    2930        0)      CMP      r1,#0x30
        0x08000678:    d006        ..      BEQ      0x8000688 ; co_printf + 120
        0x0800067a:    e01d        ..      B        0x80006b8 ; co_printf + 168
        0x0800067c:    f8141f02    ....    LDRB     r1,[r4,#2]!
        0x08000680:    2601        .&      MOVS     r6,#1
        0x08000682:    4627        'F      MOV      r7,r4
        0x08000684:    2930        0)      CMP      r1,#0x30
        0x08000686:    d117        ..      BNE      0x80006b8 ; co_printf + 168
        0x08000688:    3702        .7      ADDS     r7,#2
        0x0800068a:    bf00        ..      NOP      
        0x0800068c:    f8171c01    ....    LDRB     r1,[r7,#-1]
        0x08000690:    f0460602    F...    ORR      r6,r6,#2
        0x08000694:    2930        0)      CMP      r1,#0x30
        0x08000696:    d10b        ..      BNE      0x80006b0 ; co_printf + 160
        0x08000698:    7839        9x      LDRB     r1,[r7,#0]
        0x0800069a:    2930        0)      CMP      r1,#0x30
        0x0800069c:    d10c        ..      BNE      0x80006b8 ; co_printf + 168
        0x0800069e:    7879        yx      LDRB     r1,[r7,#1]
        0x080006a0:    2930        0)      CMP      r1,#0x30
        0x080006a2:    d107        ..      BNE      0x80006b4 ; co_printf + 164
        0x080006a4:    78b9        .x      LDRB     r1,[r7,#2]
        0x080006a6:    3704        .7      ADDS     r7,#4
        0x080006a8:    2930        0)      CMP      r1,#0x30
        0x080006aa:    d0ef        ..      BEQ      0x800068c ; co_printf + 124
        0x080006ac:    3f02        .?      SUBS     r7,#2
        0x080006ae:    e003        ..      B        0x80006b8 ; co_printf + 168
        0x080006b0:    3f01        .?      SUBS     r7,#1
        0x080006b2:    e001        ..      B        0x80006b8 ; co_printf + 168
        0x080006b4:    3701        .7      ADDS     r7,#1
        0x080006b6:    bf00        ..      NOP      
        0x080006b8:    f1a10030    ..0.    SUB      r0,r1,#0x30
        0x080006bc:    2809        .(      CMP      r0,#9
        0x080006be:    d834        4.      BHI      0x800072a ; co_printf + 282
        0x080006c0:    3702        .7      ADDS     r7,#2
        0x080006c2:    f04f0900    O...    MOV      r9,#0
        0x080006c6:    bf00        ..      NOP      
        0x080006c8:    eb090089    ....    ADD      r0,r9,r9,LSL #2
        0x080006cc:    eb010040    ..@.    ADD      r0,r1,r0,LSL #1
        0x080006d0:    f8171c01    ....    LDRB     r1,[r7,#-1]
        0x080006d4:    f1a00930    ..0.    SUB      r9,r0,#0x30
        0x080006d8:    f1a10230    ..0.    SUB      r2,r1,#0x30
        0x080006dc:    2a0a        .*      CMP      r2,#0xa
        0x080006de:    d227        '.      BCS      0x8000730 ; co_printf + 288
        0x080006e0:    eb090089    ....    ADD      r0,r9,r9,LSL #2
        0x080006e4:    eb010040    ..@.    ADD      r0,r1,r0,LSL #1
        0x080006e8:    7839        9x      LDRB     r1,[r7,#0]
        0x080006ea:    f1a00930    ..0.    SUB      r9,r0,#0x30
        0x080006ee:    f1a10230    ..0.    SUB      r2,r1,#0x30
        0x080006f2:    2a09        .*      CMP      r2,#9
        0x080006f4:    d820         .      BHI      0x8000738 ; co_printf + 296
        0x080006f6:    eb090089    ....    ADD      r0,r9,r9,LSL #2
        0x080006fa:    eb010040    ..@.    ADD      r0,r1,r0,LSL #1
        0x080006fe:    7879        yx      LDRB     r1,[r7,#1]
        0x08000700:    f1a00930    ..0.    SUB      r9,r0,#0x30
        0x08000704:    f1a10230    ..0.    SUB      r2,r1,#0x30
        0x08000708:    2a09        .*      CMP      r2,#9
        0x0800070a:    d813        ..      BHI      0x8000734 ; co_printf + 292
        0x0800070c:    eb090089    ....    ADD      r0,r9,r9,LSL #2
        0x08000710:    eb010040    ..@.    ADD      r0,r1,r0,LSL #1
        0x08000714:    78b9        .x      LDRB     r1,[r7,#2]
        0x08000716:    f1a00930    ..0.    SUB      r9,r0,#0x30
        0x0800071a:    f1a10030    ..0.    SUB      r0,r1,#0x30
        0x0800071e:    280a        .(      CMP      r0,#0xa
        0x08000720:    f1070704    ....    ADD      r7,r7,#4
        0x08000724:    d3d0        ..      BCC      0x80006c8 ; co_printf + 184
        0x08000726:    3f02        .?      SUBS     r7,#2
        0x08000728:    e006        ..      B        0x8000738 ; co_printf + 296
        0x0800072a:    f04f0900    O...    MOV      r9,#0
        0x0800072e:    e003        ..      B        0x8000738 ; co_printf + 296
        0x08000730:    3f01        .?      SUBS     r7,#1
        0x08000732:    e001        ..      B        0x8000738 ; co_printf + 296
        0x08000734:    3701        .7      ADDS     r7,#1
        0x08000736:    bf00        ..      NOP      
        0x08000738:    f1a10058    ..X.    SUB      r0,r1,#0x58
        0x0800073c:    2820         (      CMP      r0,#0x20
        0x0800073e:    f2008193    ....    BHI.W    0x8000a68 ; co_printf + 1112
        0x08000742:    e8dff010    ....    TBH      [pc,r0,LSL #1]
    $d.2
        0x08000746:    0021        !.      DCW    33
        0x08000748:    01910191    ....    DCD    26280337
        0x0800074c:    01910191    ....    DCD    26280337
        0x08000750:    01910191    ....    DCD    26280337
        0x08000754:    01910191    ....    DCD    26280337
        0x08000758:    01910191    ....    DCD    26280337
        0x0800075c:    0066005c    \.f.    DCD    6684764
        0x08000760:    01910191    ....    DCD    26280337
        0x08000764:    01910191    ....    DCD    26280337
        0x08000768:    01910191    ....    DCD    26280337
        0x0800076c:    01910191    ....    DCD    26280337
        0x08000770:    01910191    ....    DCD    26280337
        0x08000774:    00710191    ..q.    DCD    7405969
        0x08000778:    01910191    ....    DCD    26280337
        0x0800077c:    019100ba    ....    DCD    26280122
        0x08000780:    019100c1    ....    DCD    26280129
        0x08000784:    00d90191    ....    DCD    14221713
    $t.3
        0x08000788:    f8580b04    X...    LDR      r0,[r8],#4
        0x0800078c:    2800        .(      CMP      r0,#0
        0x0800078e:    f00080ec    ....    BEQ.W    0x800096a ; co_printf + 858
        0x08000792:    2100        .!      MOVS     r1,#0
        0x08000794:    f88d1027    ..'.    STRB     r1,[sp,#0x27]
        0x08000798:    4651        QF      MOV      r1,r10
        0x0800079a:    bf00        ..      NOP      
        0x0800079c:    f000020f    ....    AND      r2,r0,#0xf
        0x080007a0:    2a09        .*      CMP      r2,#9
        0x080007a2:    bf88        ..      IT       HI
        0x080007a4:    3207        .2      ADDHI    r2,#7
        0x080007a6:    3230        02      ADDS     r2,r2,#0x30
        0x080007a8:    2810        .(      CMP      r0,#0x10
        0x080007aa:    f8012c01    ...,    STRB     r2,[r1,#-1]
        0x080007ae:    f0c0814f    ..O.    BCC.W    0x8000a50 ; co_printf + 1088
        0x080007b2:    f3c01203    ....    UBFX     r2,r0,#4,#4
        0x080007b6:    2a09        .*      CMP      r2,#9
        0x080007b8:    bf88        ..      IT       HI
        0x080007ba:    3207        .2      ADDHI    r2,#7
        0x080007bc:    3230        02      ADDS     r2,r2,#0x30
        0x080007be:    f5b07f80    ....    CMP      r0,#0x100
        0x080007c2:    f8012c02    ...,    STRB     r2,[r1,#-2]
        0x080007c6:    f0c08145    ..E.    BCC.W    0x8000a54 ; co_printf + 1092
        0x080007ca:    f3c02203    ..."    UBFX     r2,r0,#8,#4
        0x080007ce:    2a09        .*      CMP      r2,#9
        0x080007d0:    bf88        ..      IT       HI
        0x080007d2:    3207        .2      ADDHI    r2,#7
        0x080007d4:    3230        02      ADDS     r2,r2,#0x30
        0x080007d6:    f5b05f80    ..._    CMP      r0,#0x1000
        0x080007da:    f8012c03    ...,    STRB     r2,[r1,#-3]
        0x080007de:    f0c0813b    ..;.    BCC.W    0x8000a58 ; co_printf + 1096
        0x080007e2:    f3c03203    ...2    UBFX     r2,r0,#12,#4
        0x080007e6:    2a09        .*      CMP      r2,#9
        0x080007e8:    bf88        ..      IT       HI
        0x080007ea:    3207        .2      ADDHI    r2,#7
        0x080007ec:    3230        02      ADDS     r2,r2,#0x30
        0x080007ee:    f8012d04    ...-    STRB     r2,[r1,#-4]!
        0x080007f2:    f5b03f80    ...?    CMP      r0,#0x10000
        0x080007f6:    ea4f4010    O..@    LSR      r0,r0,#16
        0x080007fa:    d2cf        ..      BCS      0x800079c ; co_printf + 396
        0x080007fc:    e12e        ..      B        0x8000a5c ; co_printf + 1100
        0x080007fe:    f8580b04    X...    LDR      r0,[r8],#4
        0x08000802:    f10d011a    ....    ADD      r1,sp,#0x1a
        0x08000806:    f88d001a    ....    STRB     r0,[sp,#0x1a]
        0x0800080a:    2000        .       MOVS     r0,#0
        0x0800080c:    f88d001b    ....    STRB     r0,[sp,#0x1b]
        0x08000810:    e124        $.      B        0x8000a5c ; co_printf + 1100
        0x08000812:    f8580b04    X...    LDR      r0,[r8],#4
        0x08000816:    9600        ..      STR      r6,[sp,#0]
        0x08000818:    210a        .!      MOVS     r1,#0xa
        0x0800081a:    2201        ."      MOVS     r2,#1
        0x0800081c:    464b        KF      MOV      r3,r9
        0x0800081e:    2661        a&      MOVS     r6,#0x61
        0x08000820:    9601        ..      STR      r6,[sp,#4]
        0x08000822:    f001faf9    ....    BL       printi ; 0x8001e18
        0x08000826:    e11e        ..      B        0x8000a66 ; co_printf + 1110
        0x08000828:    f8cda008    ....    STR      r10,[sp,#8]
        0x0800082c:    46ba        .F      MOV      r10,r7
        0x0800082e:    f81a0f01    ....    LDRB     r0,[r10,#1]!
        0x08000832:    2849        I(      CMP      r0,#0x49
        0x08000834:    f000809e    ....    BEQ.W    0x8000974 ; co_printf + 868
        0x08000838:    284d        M(      CMP      r0,#0x4d
        0x0800083a:    f04080d0    @...    BNE.W    0x80009de ; co_printf + 974
        0x0800083e:    f8d87000    ...p    LDR      r7,[r8,#0]
        0x08000842:    f0460602    F...    ORR      r6,r6,#2
        0x08000846:    2400        .$      MOVS     r4,#0
        0x08000848:    e004        ..      B        0x8000854 ; co_printf + 580
        0x0800084a:    bf00        ..      NOP      
        0x0800084c:    203a        :       MOVS     r0,#0x3a
        0x0800084e:    f002fc99    ....    BL       uart_putc ; 0x8003184
        0x08000852:    3401        .4      ADDS     r4,#1
        0x08000854:    5d38        8]      LDRB     r0,[r7,r4]
        0x08000856:    b188        ..      CBZ      r0,0x800087c ; co_printf + 620
        0x08000858:    2100        .!      MOVS     r1,#0
        0x0800085a:    f88d1027    ..'.    STRB     r1,[sp,#0x27]
        0x0800085e:    f000010f    ....    AND      r1,r0,#0xf
        0x08000862:    2909        .)      CMP      r1,#9
        0x08000864:    bf88        ..      IT       HI
        0x08000866:    3127        '1      ADDHI    r1,r1,#0x27
        0x08000868:    280f        .(      CMP      r0,#0xf
        0x0800086a:    f1010130    ..0.    ADD      r1,r1,#0x30
        0x0800086e:    d80b        ..      BHI      0x8000888 ; co_printf + 632
        0x08000870:    f89d0025    ..%.    LDRB     r0,[sp,#0x25]
        0x08000874:    f88d1026    ..&.    STRB     r1,[sp,#0x26]
        0x08000878:    9904        ..      LDR      r1,[sp,#0x10]
        0x0800087a:    e011        ..      B        0x80008a0 ; co_printf + 656
        0x0800087c:    2030        0       MOVS     r0,#0x30
        0x0800087e:    f8ad001c    ....    STRH     r0,[sp,#0x1c]
        0x08000882:    a907        ..      ADD      r1,sp,#0x1c
        0x08000884:    e00e        ..      B        0x80008a4 ; co_printf + 660
        0x08000886:    bf00        ..      NOP      
        0x08000888:    0902        ..      LSRS     r2,r0,#4
        0x0800088a:    289f        .(      CMP      r0,#0x9f
        0x0800088c:    f04f0327    O.'.    MOV      r3,#0x27
        0x08000890:    bf88        ..      IT       HI
        0x08000892:    eb031210    ....    ADDHI    r2,r3,r0,LSR #4
        0x08000896:    f1020030    ..0.    ADD      r0,r2,#0x30
        0x0800089a:    f88d1026    ..&.    STRB     r1,[sp,#0x26]
        0x0800089e:    9903        ..      LDR      r1,[sp,#0xc]
        0x080008a0:    f88d0025    ..%.    STRB     r0,[sp,#0x25]
        0x080008a4:    2000        .       MOVS     r0,#0
        0x080008a6:    2202        ."      MOVS     r2,#2
        0x080008a8:    4633        3F      MOV      r3,r6
        0x080008aa:    f001fb11    ....    BL       prints ; 0x8001ed0
        0x080008ae:    2c05        .,      CMP      r4,#5
        0x080008b0:    4405        .D      ADD      r5,r5,r0
        0x080008b2:    d1cb        ..      BNE      0x800084c ; co_printf + 572
        0x080008b4:    f1080804    ....    ADD      r8,r8,#4
        0x080008b8:    e08c        ..      B        0x80009d4 ; co_printf + 964
        0x080008ba:    f8581b04    X...    LDR      r1,[r8],#4
        0x080008be:    a070        p.      ADR      r0,{pc}+0x1c2 ; 0x8000a80
        0x080008c0:    2900        .)      CMP      r1,#0
        0x080008c2:    bf08        ..      IT       EQ
        0x080008c4:    4601        .F      MOVEQ    r1,r0
        0x080008c6:    e0c9        ..      B        0x8000a5c ; co_printf + 1100
        0x080008c8:    f8580b04    X...    LDR      r0,[r8],#4
        0x080008cc:    2800        .(      CMP      r0,#0
        0x080008ce:    d04c        L.      BEQ      0x800096a ; co_printf + 858
        0x080008d0:    2100        .!      MOVS     r1,#0
        0x080008d2:    f88d1027    ..'.    STRB     r1,[sp,#0x27]
        0x080008d6:    9904        ..      LDR      r1,[sp,#0x10]
        0x080008d8:    fba0230b    ...#    UMULL    r2,r3,r0,r11
        0x080008dc:    08da        ..      LSRS     r2,r3,#3
        0x080008de:    eb020382    ....    ADD      r3,r2,r2,LSL #2
        0x080008e2:    2809        .(      CMP      r0,#9
        0x080008e4:    eba00343    ..C.    SUB      r3,r0,r3,LSL #1
        0x080008e8:    4610        .F      MOV      r0,r2
        0x080008ea:    f0430330    C.0.    ORR      r3,r3,#0x30
        0x080008ee:    f8013901    ...9    STRB     r3,[r1],#-1
        0x080008f2:    d8f1        ..      BHI      0x80008d8 ; co_printf + 712
        0x080008f4:    3101        .1      ADDS     r1,#1
        0x080008f6:    e0b1        ..      B        0x8000a5c ; co_printf + 1100
        0x080008f8:    f8580b04    X...    LDR      r0,[r8],#4
        0x080008fc:    b3a8        ..      CBZ      r0,0x800096a ; co_printf + 858
        0x080008fe:    2100        .!      MOVS     r1,#0
        0x08000900:    f88d1027    ..'.    STRB     r1,[sp,#0x27]
        0x08000904:    4651        QF      MOV      r1,r10
        0x08000906:    bf00        ..      NOP      
        0x08000908:    f000020f    ....    AND      r2,r0,#0xf
        0x0800090c:    2a09        .*      CMP      r2,#9
        0x0800090e:    bf88        ..      IT       HI
        0x08000910:    3227        '2      ADDHI    r2,r2,#0x27
        0x08000912:    3230        02      ADDS     r2,r2,#0x30
        0x08000914:    2810        .(      CMP      r0,#0x10
        0x08000916:    f8012c01    ...,    STRB     r2,[r1,#-1]
        0x0800091a:    f0c08099    ....    BCC.W    0x8000a50 ; co_printf + 1088
        0x0800091e:    f3c01203    ....    UBFX     r2,r0,#4,#4
        0x08000922:    2a09        .*      CMP      r2,#9
        0x08000924:    bf88        ..      IT       HI
        0x08000926:    3227        '2      ADDHI    r2,r2,#0x27
        0x08000928:    3230        02      ADDS     r2,r2,#0x30
        0x0800092a:    f5b07f80    ....    CMP      r0,#0x100
        0x0800092e:    f8012c02    ...,    STRB     r2,[r1,#-2]
        0x08000932:    f0c0808f    ....    BCC.W    0x8000a54 ; co_printf + 1092
        0x08000936:    f3c02203    ..."    UBFX     r2,r0,#8,#4
        0x0800093a:    2a09        .*      CMP      r2,#9
        0x0800093c:    bf88        ..      IT       HI
        0x0800093e:    3227        '2      ADDHI    r2,r2,#0x27
        0x08000940:    3230        02      ADDS     r2,r2,#0x30
        0x08000942:    f5b05f80    ..._    CMP      r0,#0x1000
        0x08000946:    f8012c03    ...,    STRB     r2,[r1,#-3]
        0x0800094a:    f0c08085    ....    BCC.W    0x8000a58 ; co_printf + 1096
        0x0800094e:    f3c03203    ...2    UBFX     r2,r0,#12,#4
        0x08000952:    2a09        .*      CMP      r2,#9
        0x08000954:    bf88        ..      IT       HI
        0x08000956:    3227        '2      ADDHI    r2,r2,#0x27
        0x08000958:    3230        02      ADDS     r2,r2,#0x30
        0x0800095a:    f8012d04    ...-    STRB     r2,[r1,#-4]!
        0x0800095e:    f5b03f80    ...?    CMP      r0,#0x10000
        0x08000962:    ea4f4010    O..@    LSR      r0,r0,#16
        0x08000966:    d2cf        ..      BCS      0x8000908 ; co_printf + 760
        0x08000968:    e078        x.      B        0x8000a5c ; co_printf + 1100
        0x0800096a:    2030        0       MOVS     r0,#0x30
        0x0800096c:    f8ad001c    ....    STRH     r0,[sp,#0x1c]
        0x08000970:    a907        ..      ADD      r1,sp,#0x1c
        0x08000972:    e073        s.      B        0x8000a5c ; co_printf + 1100
        0x08000974:    f8584b04    X..K    LDR      r4,[r8],#4
        0x08000978:    210a        .!      MOVS     r1,#0xa
        0x0800097a:    7820         x      LDRB     r0,[r4,#0]
        0x0800097c:    2201        ."      MOVS     r2,#1
        0x0800097e:    464b        KF      MOV      r3,r9
        0x08000980:    2761        a'      MOVS     r7,#0x61
        0x08000982:    9600        ..      STR      r6,[sp,#0]
        0x08000984:    9701        ..      STR      r7,[sp,#4]
        0x08000986:    f001fa47    ..G.    BL       printi ; 0x8001e18
        0x0800098a:    4405        .D      ADD      r5,r5,r0
        0x0800098c:    202e        .       MOVS     r0,#0x2e
        0x0800098e:    f002fbf9    ....    BL       uart_putc ; 0x8003184
        0x08000992:    7860        `x      LDRB     r0,[r4,#1]
        0x08000994:    210a        .!      MOVS     r1,#0xa
        0x08000996:    2201        ."      MOVS     r2,#1
        0x08000998:    464b        KF      MOV      r3,r9
        0x0800099a:    9600        ..      STR      r6,[sp,#0]
        0x0800099c:    9701        ..      STR      r7,[sp,#4]
        0x0800099e:    f001fa3b    ..;.    BL       printi ; 0x8001e18
        0x080009a2:    4405        .D      ADD      r5,r5,r0
        0x080009a4:    202e        .       MOVS     r0,#0x2e
        0x080009a6:    f002fbed    ....    BL       uart_putc ; 0x8003184
        0x080009aa:    78a0        .x      LDRB     r0,[r4,#2]
        0x080009ac:    210a        .!      MOVS     r1,#0xa
        0x080009ae:    2201        ."      MOVS     r2,#1
        0x080009b0:    464b        KF      MOV      r3,r9
        0x080009b2:    9600        ..      STR      r6,[sp,#0]
        0x080009b4:    9701        ..      STR      r7,[sp,#4]
        0x080009b6:    f001fa2f    ../.    BL       printi ; 0x8001e18
        0x080009ba:    4405        .D      ADD      r5,r5,r0
        0x080009bc:    202e        .       MOVS     r0,#0x2e
        0x080009be:    f002fbe1    ....    BL       uart_putc ; 0x8003184
        0x080009c2:    78e0        .x      LDRB     r0,[r4,#3]
        0x080009c4:    210a        .!      MOVS     r1,#0xa
        0x080009c6:    2201        ."      MOVS     r2,#1
        0x080009c8:    464b        KF      MOV      r3,r9
        0x080009ca:    9600        ..      STR      r6,[sp,#0]
        0x080009cc:    9701        ..      STR      r7,[sp,#4]
        0x080009ce:    f001fa23    ..#.    BL       printi ; 0x8001e18
        0x080009d2:    4405        .D      ADD      r5,r5,r0
        0x080009d4:    4657        WF      MOV      r7,r10
        0x080009d6:    f8dda008    ....    LDR      r10,[sp,#8]
        0x080009da:    1c7c        |.      ADDS     r4,r7,#1
        0x080009dc:    e63a        :.      B        0x8000654 ; co_printf + 68
        0x080009de:    f8580b04    X...    LDR      r0,[r8],#4
        0x080009e2:    2800        .(      CMP      r0,#0
        0x080009e4:    d042        B.      BEQ      0x8000a6c ; co_printf + 1116
        0x080009e6:    f8dda008    ....    LDR      r10,[sp,#8]
        0x080009ea:    2100        .!      MOVS     r1,#0
        0x080009ec:    f88d1027    ..'.    STRB     r1,[sp,#0x27]
        0x080009f0:    4651        QF      MOV      r1,r10
        0x080009f2:    bf00        ..      NOP      
        0x080009f4:    f000020f    ....    AND      r2,r0,#0xf
        0x080009f8:    2a09        .*      CMP      r2,#9
        0x080009fa:    bf88        ..      IT       HI
        0x080009fc:    3227        '2      ADDHI    r2,r2,#0x27
        0x080009fe:    3230        02      ADDS     r2,r2,#0x30
        0x08000a00:    2810        .(      CMP      r0,#0x10
        0x08000a02:    f8012c01    ...,    STRB     r2,[r1,#-1]
        0x08000a06:    d323        #.      BCC      0x8000a50 ; co_printf + 1088
        0x08000a08:    f3c01203    ....    UBFX     r2,r0,#4,#4
        0x08000a0c:    2a09        .*      CMP      r2,#9
        0x08000a0e:    bf88        ..      IT       HI
        0x08000a10:    3227        '2      ADDHI    r2,r2,#0x27
        0x08000a12:    3230        02      ADDS     r2,r2,#0x30
        0x08000a14:    f5b07f80    ....    CMP      r0,#0x100
        0x08000a18:    f8012c02    ...,    STRB     r2,[r1,#-2]
        0x08000a1c:    d31a        ..      BCC      0x8000a54 ; co_printf + 1092
        0x08000a1e:    f3c02203    ..."    UBFX     r2,r0,#8,#4
        0x08000a22:    2a09        .*      CMP      r2,#9
        0x08000a24:    bf88        ..      IT       HI
        0x08000a26:    3227        '2      ADDHI    r2,r2,#0x27
        0x08000a28:    3230        02      ADDS     r2,r2,#0x30
        0x08000a2a:    f5b05f80    ..._    CMP      r0,#0x1000
        0x08000a2e:    f8012c03    ...,    STRB     r2,[r1,#-3]
        0x08000a32:    d311        ..      BCC      0x8000a58 ; co_printf + 1096
        0x08000a34:    f3c03203    ...2    UBFX     r2,r0,#12,#4
        0x08000a38:    2a09        .*      CMP      r2,#9
        0x08000a3a:    bf88        ..      IT       HI
        0x08000a3c:    3227        '2      ADDHI    r2,r2,#0x27
        0x08000a3e:    3230        02      ADDS     r2,r2,#0x30
        0x08000a40:    f8012d04    ...-    STRB     r2,[r1,#-4]!
        0x08000a44:    f5b03f80    ...?    CMP      r0,#0x10000
        0x08000a48:    ea4f4010    O..@    LSR      r0,r0,#16
        0x08000a4c:    d2d2        ..      BCS      0x80009f4 ; co_printf + 996
        0x08000a4e:    e005        ..      B        0x8000a5c ; co_printf + 1100
        0x08000a50:    3901        .9      SUBS     r1,#1
        0x08000a52:    e003        ..      B        0x8000a5c ; co_printf + 1100
        0x08000a54:    3902        .9      SUBS     r1,#2
        0x08000a56:    e001        ..      B        0x8000a5c ; co_printf + 1100
        0x08000a58:    3903        .9      SUBS     r1,#3
        0x08000a5a:    bf00        ..      NOP      
        0x08000a5c:    2000        .       MOVS     r0,#0
        0x08000a5e:    464a        JF      MOV      r2,r9
        0x08000a60:    4633        3F      MOV      r3,r6
        0x08000a62:    f001fa35    ..5.    BL       prints ; 0x8001ed0
        0x08000a66:    4405        .D      ADD      r5,r5,r0
        0x08000a68:    1c7c        |.      ADDS     r4,r7,#1
        0x08000a6a:    e5f3        ..      B        0x8000654 ; co_printf + 68
        0x08000a6c:    2030        0       MOVS     r0,#0x30
        0x08000a6e:    f8dda008    ....    LDR      r10,[sp,#8]
        0x08000a72:    e77b        {.      B        0x800096c ; co_printf + 860
        0x08000a74:    4628        (F      MOV      r0,r5
        0x08000a76:    b00a        ..      ADD      sp,sp,#0x28
        0x08000a78:    e8bd4ff0    ...O    POP      {r4-r11,lr}
        0x08000a7c:    b003        ..      ADD      sp,sp,#0xc
        0x08000a7e:    4770        pG      BX       lr
    $d.4
        0x08000a80:    6c756e28    (nul    DCD    1819635240
        0x08000a84:    0000296c    l)..    DCD    10604
    $t.16
    flash_erase
        0x08000a88:    b5b0        ..      PUSH     {r4,r5,r7,lr}
        0x08000a8a:    f242021c    B...    MOV      r2,#0x201c
        0x08000a8e:    f2c40202    ....    MOVT     r2,#0x4002
        0x08000a92:    460c        .F      MOV      r4,r1
        0x08000a94:    6811        .h      LDR      r1,[r2,#0]
        0x08000a96:    6811        .h      LDR      r1,[r2,#0]
        0x08000a98:    f44f1300    O...    MOV      r3,#0x200000
        0x08000a9c:    06c9        ..      LSLS     r1,r1,#27
        0x08000a9e:    bf58        X.      IT       PL
        0x08000aa0:    f04f7300    O..s    MOVPL    r3,#0x2000000
        0x08000aa4:    2c01        .,      CMP      r4,#1
        0x08000aa6:    f04f31ff    O..1    MOV      r1,#0xffffffff
        0x08000aaa:    db25        %.      BLT      0x8000af8 ; flash_erase + 112
        0x08000aac:    4283        .B      CMP      r3,r0
        0x08000aae:    d923        #.      BLS      0x8000af8 ; flash_erase + 112
        0x08000ab0:    6813        .h      LDR      r3,[r2,#0]
        0x08000ab2:    1901        ..      ADDS     r1,r0,r4
        0x08000ab4:    06db        ..      LSLS     r3,r3,#27
        0x08000ab6:    f1a10101    ....    SUB      r1,r1,#1
        0x08000aba:    f44f1300    O...    MOV      r3,#0x200000
        0x08000abe:    bf58        X.      IT       PL
        0x08000ac0:    f04f7300    O..s    MOVPL    r3,#0x2000000
        0x08000ac4:    428b        .B      CMP      r3,r1
        0x08000ac6:    bf9e        ..      ITTT     LS
        0x08000ac8:    f04f31ff    O..1    MOVLS    r1,#0xffffffff
        0x08000acc:    4608        .F      MOVLS    r0,r1
        0x08000ace:    bdb0        ..      POPLS    {r4,r5,r7,pc}
        0x08000ad0:    6811        .h      LDR      r1,[r2,#0]
        0x08000ad2:    f64072ff    @..r    MOV      r2,#0xfff
        0x08000ad6:    06c9        ..      LSLS     r1,r1,#27
        0x08000ad8:    ea200502     ...    BIC      r5,r0,r2
        0x08000adc:    d40e        ..      BMI      0x8000afc ; flash_erase + 116
        0x08000ade:    bf00        ..      NOP      
        0x08000ae0:    b672        r.      CPSID    i
        0x08000ae2:    4628        (F      MOV      r0,r5
        0x08000ae4:    f002fc01    ....    BL       $Ven$TT$L$$qspi_flash_sector_erase ; 0x80032ea
        0x08000ae8:    b662        b.      CPSIE    i
        0x08000aea:    f5a45480    ...T    SUB      r4,r4,#0x1000
        0x08000aee:    2c00        .,      CMP      r4,#0
        0x08000af0:    f5055580    ...U    ADD      r5,r5,#0x1000
        0x08000af4:    dcf4        ..      BGT      0x8000ae0 ; flash_erase + 88
        0x08000af6:    2100        .!      MOVS     r1,#0
        0x08000af8:    4608        .F      MOV      r0,r1
        0x08000afa:    bdb0        ..      POP      {r4,r5,r7,pc}
        0x08000afc:    f000fdec    ....    BL       fmc_unlock ; 0x80016d8
        0x08000b00:    2038        8       MOVS     r0,#0x38
        0x08000b02:    f000fcdb    ....    BL       fmc_flag_clear ; 0x80014bc
        0x08000b06:    f1056500    ...e    ADD      r5,r5,#0x8000000
        0x08000b0a:    bf00        ..      NOP      
        0x08000b0c:    4628        (F      MOV      r0,r5
        0x08000b0e:    f000fd3d    ..=.    BL       fmc_page_erase ; 0x800158c
        0x08000b12:    b950        P.      CBNZ     r0,0x8000b2a ; flash_erase + 162
        0x08000b14:    f5a45480    ...T    SUB      r4,r4,#0x1000
        0x08000b18:    2c00        .,      CMP      r4,#0
        0x08000b1a:    f5055580    ...U    ADD      r5,r5,#0x1000
        0x08000b1e:    dcf5        ..      BGT      0x8000b0c ; flash_erase + 132
        0x08000b20:    f000fcd2    ....    BL       fmc_lock ; 0x80014c8
        0x08000b24:    2100        .!      MOVS     r1,#0
        0x08000b26:    4608        .F      MOV      r0,r1
        0x08000b28:    bdb0        ..      POP      {r4,r5,r7,pc}
        0x08000b2a:    f06f0101    o...    MVN      r1,#1
        0x08000b2e:    4608        .F      MOV      r0,r1
        0x08000b30:    bdb0        ..      POP      {r4,r5,r7,pc}
        0x08000b32:    0000        ..      MOVS     r0,r0
    flash_fast_write
        0x08000b34:    e92d47f0    -..G    PUSH     {r4-r10,lr}
        0x08000b38:    460d        .F      MOV      r5,r1
        0x08000b3a:    f242011c    B...    MOV      r1,#0x201c
        0x08000b3e:    f2c40102    ....    MOVT     r1,#0x4002
        0x08000b42:    4614        .F      MOV      r4,r2
        0x08000b44:    680a        .h      LDR      r2,[r1,#0]
        0x08000b46:    4606        .F      MOV      r6,r0
        0x08000b48:    06d0        ..      LSLS     r0,r2,#27
        0x08000b4a:    f44f1000    O...    MOV      r0,#0x200000
        0x08000b4e:    bf58        X.      IT       PL
        0x08000b50:    f04f7000    O..p    MOVPL    r0,#0x2000000
        0x08000b54:    2c01        .,      CMP      r4,#1
        0x08000b56:    f04f37ff    O..7    MOV      r7,#0xffffffff
        0x08000b5a:    db03        ..      BLT      0x8000b64 ; flash_fast_write + 48
        0x08000b5c:    2d00        .-      CMP      r5,#0
        0x08000b5e:    bf18        ..      IT       NE
        0x08000b60:    42b0        .B      CMPNE    r0,r6
        0x08000b62:    d802        ..      BHI      0x8000b6a ; flash_fast_write + 54
        0x08000b64:    4638        8F      MOV      r0,r7
        0x08000b66:    e8bd87f0    ....    POP      {r4-r10,pc}
        0x08000b6a:    6808        .h      LDR      r0,[r1,#0]
        0x08000b6c:    eb040a06    ....    ADD      r10,r4,r6
        0x08000b70:    06c0        ..      LSLS     r0,r0,#27
        0x08000b72:    f1aa0201    ....    SUB      r2,r10,#1
        0x08000b76:    f44f1000    O...    MOV      r0,#0x200000
        0x08000b7a:    bf58        X.      IT       PL
        0x08000b7c:    f04f7000    O..p    MOVPL    r0,#0x2000000
        0x08000b80:    4290        .B      CMP      r0,r2
        0x08000b82:    bf9e        ..      ITTT     LS
        0x08000b84:    f04f37ff    O..7    MOVLS    r7,#0xffffffff
        0x08000b88:    4638        8F      MOVLS    r0,r7
        0x08000b8a:    e8bd87f0    ....    POPLS    {r4-r10,pc}
        0x08000b8e:    6808        .h      LDR      r0,[r1,#0]
        0x08000b90:    06c0        ..      LSLS     r0,r0,#27
        0x08000b92:    d429        ).      BMI      0x8000be8 ; flash_fast_write + 180
        0x08000b94:    b2f0        ..      UXTB     r0,r6
        0x08000b96:    b188        ..      CBZ      r0,0x8000bbc ; flash_fast_write + 136
        0x08000b98:    b672        r.      CPSID    i
        0x08000b9a:    f5c07780    ...w    RSB      r7,r0,#0x100
        0x08000b9e:    42a7        .B      CMP      r7,r4
        0x08000ba0:    bf28        (.      IT       CS
        0x08000ba2:    4627        'F      MOVCS    r7,r4
        0x08000ba4:    4630        0F      MOV      r0,r6
        0x08000ba6:    4629        )F      MOV      r1,r5
        0x08000ba8:    463a        :F      MOV      r2,r7
        0x08000baa:    f002fba3    ....    BL       $Ven$TT$L$$qspi_flash_page_program ; 0x80032f4
        0x08000bae:    b662        b.      CPSIE    i
        0x08000bb0:    1be4        ..      SUBS     r4,r4,r7
        0x08000bb2:    2c01        .,      CMP      r4,#1
        0x08000bb4:    db59        Y.      BLT      0x8000c6a ; flash_fast_write + 310
        0x08000bb6:    443e        >D      ADD      r6,r6,r7
        0x08000bb8:    443d        =D      ADD      r5,r5,r7
        0x08000bba:    bf00        ..      NOP      
        0x08000bbc:    b672        r.      CPSID    i
        0x08000bbe:    4627        'F      MOV      r7,r4
        0x08000bc0:    f5b47f80    ....    CMP      r4,#0x100
        0x08000bc4:    bfa8        ..      IT       GE
        0x08000bc6:    f44f7780    O..w    MOVGE    r7,#0x100
        0x08000bca:    4630        0F      MOV      r0,r6
        0x08000bcc:    4629        )F      MOV      r1,r5
        0x08000bce:    463a        :F      MOV      r2,r7
        0x08000bd0:    f002fb90    ....    BL       $Ven$TT$L$$qspi_flash_page_program ; 0x80032f4
        0x08000bd4:    b662        b.      CPSIE    i
        0x08000bd6:    1be4        ..      SUBS     r4,r4,r7
        0x08000bd8:    443e        >D      ADD      r6,r6,r7
        0x08000bda:    2c00        .,      CMP      r4,#0
        0x08000bdc:    443d        =D      ADD      r5,r5,r7
        0x08000bde:    dced        ..      BGT      0x8000bbc ; flash_fast_write + 136
        0x08000be0:    2700        .'      MOVS     r7,#0
        0x08000be2:    4638        8F      MOV      r0,r7
        0x08000be4:    e8bd87f0    ....    POP      {r4-r10,pc}
        0x08000be8:    2c04        .,      CMP      r4,#4
        0x08000bea:    dc06        ..      BGT      0x8000bfa ; flash_fast_write + 198
        0x08000bec:    4630        0F      MOV      r0,r6
        0x08000bee:    4629        )F      MOV      r1,r5
        0x08000bf0:    4622        "F      MOV      r2,r4
        0x08000bf2:    f000faf9    ....    BL       flash_write ; 0x80011e8
        0x08000bf6:    e8bd87f0    ....    POP      {r4-r10,pc}
        0x08000bfa:    f0160903    ....    ANDS     r9,r6,#3
        0x08000bfe:    bf18        ..      IT       NE
        0x08000c00:    f1c90904    ....    RSBNE    r9,r9,#4
        0x08000c04:    f1b90f00    ....    CMP      r9,#0
        0x08000c08:    d007        ..      BEQ      0x8000c1a ; flash_fast_write + 230
        0x08000c0a:    4630        0F      MOV      r0,r6
        0x08000c0c:    4629        )F      MOV      r1,r5
        0x08000c0e:    464a        JF      MOV      r2,r9
        0x08000c10:    f000faea    ....    BL       flash_write ; 0x80011e8
        0x08000c14:    4607        .F      MOV      r7,r0
        0x08000c16:    2800        .(      CMP      r0,#0
        0x08000c18:    d1a4        ..      BNE      0x8000b64 ; flash_fast_write + 48
        0x08000c1a:    f00a0803    ....    AND      r8,r10,#3
        0x08000c1e:    f000fd5b    ..[.    BL       fmc_unlock ; 0x80016d8
        0x08000c22:    2030        0       MOVS     r0,#0x30
        0x08000c24:    f000fc4a    ..J.    BL       fmc_flag_clear ; 0x80014bc
        0x08000c28:    b672        r.      CPSID    i
        0x08000c2a:    eb060009    ....    ADD      r0,r6,r9
        0x08000c2e:    eba40209    ....    SUB      r2,r4,r9
        0x08000c32:    f1006000    ...`    ADD      r0,r0,#0x8000000
        0x08000c36:    eb050109    ....    ADD      r1,r5,r9
        0x08000c3a:    eba20208    ....    SUB      r2,r2,r8
        0x08000c3e:    f000fb8f    ....    BL       fmc_continuous_program ; 0x8001360
        0x08000c42:    b662        b.      CPSIE    i
        0x08000c44:    4607        .F      MOV      r7,r0
        0x08000c46:    f000fc3f    ..?.    BL       fmc_lock ; 0x80014c8
        0x08000c4a:    f1b80f00    ....    CMP      r8,#0
        0x08000c4e:    f43faf89    ?...    BEQ.W    0x8000b64 ; flash_fast_write + 48
        0x08000c52:    1929        ).      ADDS     r1,r5,r4
        0x08000c54:    ebaa0008    ....    SUB      r0,r10,r8
        0x08000c58:    eba10108    ....    SUB      r1,r1,r8
        0x08000c5c:    4642        BF      MOV      r2,r8
        0x08000c5e:    f000fac3    ....    BL       flash_write ; 0x80011e8
        0x08000c62:    4607        .F      MOV      r7,r0
        0x08000c64:    2800        .(      CMP      r0,#0
        0x08000c66:    f47faf7d    ..}.    BNE      0x8000b64 ; flash_fast_write + 48
        0x08000c6a:    2700        .'      MOVS     r7,#0
        0x08000c6c:    4638        8F      MOV      r0,r7
        0x08000c6e:    e8bd87f0    ....    POP      {r4-r10,pc}
        0x08000c72:    0000        ..      MOVS     r0,r0
    flash_indirect_read
        0x08000c74:    e92d47f0    -..G    PUSH     {r4-r10,lr}
        0x08000c78:    4616        .F      MOV      r6,r2
        0x08000c7a:    2200        ."      MOVS     r2,#0
        0x08000c7c:    f2c40208    ....    MOVT     r2,#0x4008
        0x08000c80:    6812        .h      LDR      r2,[r2,#0]
        0x08000c82:    460c        .F      MOV      r4,r1
        0x08000c84:    07d1        ..      LSLS     r1,r2,#31
        0x08000c86:    4681        .F      MOV      r9,r0
        0x08000c88:    d102        ..      BNE      0x8000c90 ; flash_indirect_read + 28
        0x08000c8a:    f04f0800    O...    MOV      r8,#0
        0x08000c8e:    e003        ..      B        0x8000c98 ; flash_indirect_read + 36
        0x08000c90:    f000ff7a    ..z.    BL       icache_disable ; 0x8001b88
        0x08000c94:    f04f0801    O...    MOV      r8,#1
        0x08000c98:    f242001c    B...    MOV      r0,#0x201c
        0x08000c9c:    f2c40002    ....    MOVT     r0,#0x4002
        0x08000ca0:    6801        .h      LDR      r1,[r0,#0]
        0x08000ca2:    06c9        ..      LSLS     r1,r1,#27
        0x08000ca4:    d424        $.      BMI      0x8000cf0 ; flash_indirect_read + 124
        0x08000ca6:    6801        .h      LDR      r1,[r0,#0]
        0x08000ca8:    f04f37ff    O..7    MOV      r7,#0xffffffff
        0x08000cac:    06c9        ..      LSLS     r1,r1,#27
        0x08000cae:    f44f1100    O...    MOV      r1,#0x200000
        0x08000cb2:    bf58        X.      IT       PL
        0x08000cb4:    f04f7100    O..q    MOVPL    r1,#0x2000000
        0x08000cb8:    2e01        ..      CMP      r6,#1
        0x08000cba:    db28        (.      BLT      0x8000d0e ; flash_indirect_read + 154
        0x08000cbc:    2c00        .,      CMP      r4,#0
        0x08000cbe:    bf18        ..      IT       NE
        0x08000cc0:    4549        IE      CMPNE    r1,r9
        0x08000cc2:    d924        $.      BLS      0x8000d0e ; flash_indirect_read + 154
        0x08000cc4:    6800        .h      LDR      r0,[r0,#0]
        0x08000cc6:    eb090106    ....    ADD      r1,r9,r6
        0x08000cca:    06c0        ..      LSLS     r0,r0,#27
        0x08000ccc:    f1a10101    ....    SUB      r1,r1,#1
        0x08000cd0:    f44f1000    O...    MOV      r0,#0x200000
        0x08000cd4:    bf58        X.      IT       PL
        0x08000cd6:    f04f7000    O..p    MOVPL    r0,#0x2000000
        0x08000cda:    4288        .B      CMP      r0,r1
        0x08000cdc:    d93a        :.      BLS      0x8000d54 ; flash_indirect_read + 224
        0x08000cde:    b672        r.      CPSID    i
        0x08000ce0:    4648        HF      MOV      r0,r9
        0x08000ce2:    4621        !F      MOV      r1,r4
        0x08000ce4:    4632        2F      MOV      r2,r6
        0x08000ce6:    f002fb0a    ....    BL       $Ven$TT$L$$qspi_flash_read ; 0x80032fe
        0x08000cea:    b662        b.      CPSIE    i
        0x08000cec:    4607        .F      MOV      r7,r0
        0x08000cee:    e00e        ..      B        0x8000d0e ; flash_indirect_read + 154
        0x08000cf0:    6801        .h      LDR      r1,[r0,#0]
        0x08000cf2:    f04f37ff    O..7    MOV      r7,#0xffffffff
        0x08000cf6:    06c9        ..      LSLS     r1,r1,#27
        0x08000cf8:    f44f1100    O...    MOV      r1,#0x200000
        0x08000cfc:    bf58        X.      IT       PL
        0x08000cfe:    f04f7100    O..q    MOVPL    r1,#0x2000000
        0x08000d02:    2e01        ..      CMP      r6,#1
        0x08000d04:    db03        ..      BLT      0x8000d0e ; flash_indirect_read + 154
        0x08000d06:    2c00        .,      CMP      r4,#0
        0x08000d08:    bf18        ..      IT       NE
        0x08000d0a:    4549        IE      CMPNE    r1,r9
        0x08000d0c:    d807        ..      BHI      0x8000d1e ; flash_indirect_read + 170
        0x08000d0e:    f1b80f00    ....    CMP      r8,#0
        0x08000d12:    bf18        ..      IT       NE
        0x08000d14:    f000ff72    ..r.    BLNE     icache_enable ; 0x8001bfc
        0x08000d18:    4638        8F      MOV      r0,r7
        0x08000d1a:    e8bd87f0    ....    POP      {r4-r10,pc}
        0x08000d1e:    6800        .h      LDR      r0,[r0,#0]
        0x08000d20:    eb090106    ....    ADD      r1,r9,r6
        0x08000d24:    06c0        ..      LSLS     r0,r0,#27
        0x08000d26:    f1a10101    ....    SUB      r1,r1,#1
        0x08000d2a:    f44f1000    O...    MOV      r0,#0x200000
        0x08000d2e:    bf58        X.      IT       PL
        0x08000d30:    f04f7000    O..p    MOVPL    r0,#0x2000000
        0x08000d34:    4288        .B      CMP      r0,r1
        0x08000d36:    d910        ..      BLS      0x8000d5a ; flash_indirect_read + 230
        0x08000d38:    ea440009    D...    ORR      r0,r4,r9
        0x08000d3c:    0780        ..      LSLS     r0,r0,#30
        0x08000d3e:    d00f        ..      BEQ      0x8000d60 ; flash_indirect_read + 236
        0x08000d40:    1e70        p.      SUBS     r0,r6,#1
        0x08000d42:    2803        .(      CMP      r0,#3
        0x08000d44:    f0060c03    ....    AND      r12,r6,#3
        0x08000d48:    d23e        >.      BCS      0x8000dc8 ; flash_indirect_read + 340
        0x08000d4a:    2100        .!      MOVS     r1,#0
        0x08000d4c:    f1bc0f00    ....    CMP      r12,#0
        0x08000d50:    d158        X.      BNE      0x8000e04 ; flash_indirect_read + 400
        0x08000d52:    e064        d.      B        0x8000e1e ; flash_indirect_read + 426
        0x08000d54:    f04f37ff    O..7    MOV      r7,#0xffffffff
        0x08000d58:    e7d9        ..      B        0x8000d0e ; flash_indirect_read + 154
        0x08000d5a:    f04f37ff    O..7    MOV      r7,#0xffffffff
        0x08000d5e:    e7d6        ..      B        0x8000d0e ; flash_indirect_read + 154
        0x08000d60:    f0060203    ....    AND      r2,r6,#3
        0x08000d64:    1ab1        ..      SUBS     r1,r6,r2
        0x08000d66:    d026        &.      BEQ      0x8000db6 ; flash_indirect_read + 322
        0x08000d68:    f1096000    ...`    ADD      r0,r9,#0x8000000
        0x08000d6c:    3002        .0      ADDS     r0,#2
        0x08000d6e:    f1000e0a    ....    ADD      lr,r0,#0xa
        0x08000d72:    f1000a06    ....    ADD      r10,r0,#6
        0x08000d76:    1c87        ..      ADDS     r7,r0,#2
        0x08000d78:    2600        .&      MOVS     r6,#0
        0x08000d7a:    f04f6c00    O..l    MOV      r12,#0x8000000
        0x08000d7e:    eb090006    ....    ADD      r0,r9,r6
        0x08000d82:    f850000c    P...    LDR      r0,[r0,r12]
        0x08000d86:    1d35        5.      ADDS     r5,r6,#4
        0x08000d88:    428d        .B      CMP      r5,r1
        0x08000d8a:    51a0        .Q      STR      r0,[r4,r6]
        0x08000d8c:    d213        ..      BCS      0x8000db6 ; flash_indirect_read + 322
        0x08000d8e:    59bd        .Y      LDR      r5,[r7,r6]
        0x08000d90:    f1060308    ....    ADD      r3,r6,#8
        0x08000d94:    19a0        ..      ADDS     r0,r4,r6
        0x08000d96:    428b        .B      CMP      r3,r1
        0x08000d98:    6045        E`      STR      r5,[r0,#4]
        0x08000d9a:    d20c        ..      BCS      0x8000db6 ; flash_indirect_read + 322
        0x08000d9c:    f85a3006    Z..0    LDR      r3,[r10,r6]
        0x08000da0:    f106050c    ....    ADD      r5,r6,#0xc
        0x08000da4:    428d        .B      CMP      r5,r1
        0x08000da6:    6083        .`      STR      r3,[r0,#8]
        0x08000da8:    d205        ..      BCS      0x8000db6 ; flash_indirect_read + 322
        0x08000daa:    f85e3006    ^..0    LDR      r3,[lr,r6]
        0x08000dae:    3610        .6      ADDS     r6,r6,#0x10
        0x08000db0:    428e        .B      CMP      r6,r1
        0x08000db2:    60c3        .`      STR      r3,[r0,#0xc]
        0x08000db4:    d3e3        ..      BCC      0x8000d7e ; flash_indirect_read + 266
        0x08000db6:    b392        ..      CBZ      r2,0x8000e1e ; flash_indirect_read + 426
        0x08000db8:    1908        ..      ADDS     r0,r1,r4
        0x08000dba:    4449        ID      ADD      r1,r1,r9
        0x08000dbc:    f1016100    ...a    ADD      r1,r1,#0x8000000
        0x08000dc0:    f7fffa28    ..(.    BL       __aeabi_memcpy ; 0x8000214
        0x08000dc4:    2700        .'      MOVS     r7,#0
        0x08000dc6:    e7a2        ..      B        0x8000d0e ; flash_indirect_read + 154
        0x08000dc8:    f1096000    ...`    ADD      r0,r9,#0x8000000
        0x08000dcc:    1c83        ..      ADDS     r3,r0,#2
        0x08000dce:    f1096000    ...`    ADD      r0,r9,#0x8000000
        0x08000dd2:    eba6020c    ....    SUB      r2,r6,r12
        0x08000dd6:    1c5f        _.      ADDS     r7,r3,#1
        0x08000dd8:    1c46        F.      ADDS     r6,r0,#1
        0x08000dda:    2100        .!      MOVS     r1,#0
        0x08000ddc:    f04f6e00    O..n    MOV      lr,#0x8000000
        0x08000de0:    eb090001    ....    ADD      r0,r9,r1
        0x08000de4:    f810000e    ....    LDRB     r0,[r0,lr]
        0x08000de8:    1865        e.      ADDS     r5,r4,r1
        0x08000dea:    5460        `T      STRB     r0,[r4,r1]
        0x08000dec:    5c70        p\      LDRB     r0,[r6,r1]
        0x08000dee:    7068        hp      STRB     r0,[r5,#1]
        0x08000df0:    5c58        X\      LDRB     r0,[r3,r1]
        0x08000df2:    70a8        .p      STRB     r0,[r5,#2]
        0x08000df4:    5c78        x\      LDRB     r0,[r7,r1]
        0x08000df6:    3104        .1      ADDS     r1,#4
        0x08000df8:    428a        .B      CMP      r2,r1
        0x08000dfa:    70e8        .p      STRB     r0,[r5,#3]
        0x08000dfc:    d1f0        ..      BNE      0x8000de0 ; flash_indirect_read + 364
        0x08000dfe:    f1bc0f00    ....    CMP      r12,#0
        0x08000e02:    d00c        ..      BEQ      0x8000e1e ; flash_indirect_read + 426
        0x08000e04:    f1096000    ...`    ADD      r0,r9,#0x8000000
        0x08000e08:    5c42        B\      LDRB     r2,[r0,r1]
        0x08000e0a:    f1bc0f01    ....    CMP      r12,#1
        0x08000e0e:    5462        bT      STRB     r2,[r4,r1]
        0x08000e10:    d005        ..      BEQ      0x8000e1e ; flash_indirect_read + 426
        0x08000e12:    1c4a        J.      ADDS     r2,r1,#1
        0x08000e14:    5c83        .\      LDRB     r3,[r0,r2]
        0x08000e16:    f1bc0f02    ....    CMP      r12,#2
        0x08000e1a:    54a3        .T      STRB     r3,[r4,r2]
        0x08000e1c:    d101        ..      BNE      0x8000e22 ; flash_indirect_read + 430
        0x08000e1e:    2700        .'      MOVS     r7,#0
        0x08000e20:    e775        u.      B        0x8000d0e ; flash_indirect_read + 154
        0x08000e22:    3102        .1      ADDS     r1,#2
        0x08000e24:    5c40        @\      LDRB     r0,[r0,r1]
        0x08000e26:    2700        .'      MOVS     r7,#0
        0x08000e28:    5460        `T      STRB     r0,[r4,r1]
        0x08000e2a:    e770        p.      B        0x8000d0e ; flash_indirect_read + 154
    flash_init
        0x08000e2c:    f242001c    B...    MOV      r0,#0x201c
        0x08000e30:    f2c40002    ....    MOVT     r0,#0x4002
        0x08000e34:    6800        .h      LDR      r0,[r0,#0]
        0x08000e36:    06c0        ..      LSLS     r0,r0,#27
        0x08000e38:    d405        ..      BMI      0x8000e46 ; flash_init + 26
        0x08000e3a:    b580        ..      PUSH     {r7,lr}
        0x08000e3c:    2003        .       MOVS     r0,#3
        0x08000e3e:    f002fa63    ..c.    BL       $Ven$TT$L$$qspi_flash_config ; 0x8003308
        0x08000e42:    e8bd4080    ...@    POP      {r7,lr}
        0x08000e46:    2000        .       MOVS     r0,#0
        0x08000e48:    4770        pG      BX       lr
        0x08000e4a:    0000        ..      MOVS     r0,r0
    flash_nodec_config
        0x08000e4c:    b570        p.      PUSH     {r4-r6,lr}
        0x08000e4e:    4614        .F      MOV      r4,r2
        0x08000e50:    f242021c    B...    MOV      r2,#0x201c
        0x08000e54:    f2c40202    ....    MOVT     r2,#0x4002
        0x08000e58:    6812        .h      LDR      r2,[r2,#0]
        0x08000e5a:    460e        .F      MOV      r6,r1
        0x08000e5c:    06d1        ..      LSLS     r1,r2,#27
        0x08000e5e:    bf58        X.      IT       PL
        0x08000e60:    bd70        p.      POPPL    {r4-r6,pc}
        0x08000e62:    4605        .F      MOV      r5,r0
        0x08000e64:    f000fc38    ..8.    BL       fmc_unlock ; 0x80016d8
        0x08000e68:    f000ffc2    ....    BL       ob_unlock ; 0x8001df0
        0x08000e6c:    2030        0       MOVS     r0,#0x30
        0x08000e6e:    f000fb25    ..%.    BL       fmc_flag_clear ; 0x80014bc
        0x08000e72:    4630        0F      MOV      r0,r6
        0x08000e74:    4621        !F      MOV      r1,r4
        0x08000e76:    462a        *F      MOV      r2,r5
        0x08000e78:    f000fb30    ..0.    BL       fmc_no_rtdec_config ; 0x80014dc
        0x08000e7c:    f000ffae    ....    BL       ob_lock ; 0x8001ddc
        0x08000e80:    e8bd4070    ..p@    POP      {r4-r6,lr}
        0x08000e84:    f000bb20    .. .    B.W      fmc_lock ; 0x80014c8
    flash_offset_mapping
        0x08000e88:    b580        ..      PUSH     {r7,lr}
        0x08000e8a:    f000fc25    ..%.    BL       fmc_unlock ; 0x80016d8
        0x08000e8e:    f000ffaf    ....    BL       ob_unlock ; 0x8001df0
        0x08000e92:    200a        .       MOVS     r0,#0xa
        0x08000e94:    21ff        .!      MOVS     r1,#0xff
        0x08000e96:    f000fb61    ..a.    BL       fmc_offset_region_config ; 0x800155c
        0x08000e9a:    20f6        .       MOVS     r0,#0xf6
        0x08000e9c:    f000fb6c    ..l.    BL       fmc_offset_value_config ; 0x8001578
        0x08000ea0:    f000ff9c    ....    BL       ob_lock ; 0x8001ddc
        0x08000ea4:    e8bd4080    ...@    POP      {r7,lr}
        0x08000ea8:    f000bb0e    ....    B.W      fmc_lock ; 0x80014c8
    flash_read
        0x08000eac:    e92d43f0    -..C    PUSH     {r4-r9,lr}
        0x08000eb0:    b081        ..      SUB      sp,sp,#4
        0x08000eb2:    f242061c    B...    MOV      r6,#0x201c
        0x08000eb6:    f2c40602    ....    MOVT     r6,#0x4002
        0x08000eba:    4613        .F      MOV      r3,r2
        0x08000ebc:    6832        2h      LDR      r2,[r6,#0]
        0x08000ebe:    f44f1700    O...    MOV      r7,#0x200000
        0x08000ec2:    06d2        ..      LSLS     r2,r2,#27
        0x08000ec4:    bf58        X.      IT       PL
        0x08000ec6:    f04f7700    O..w    MOVPL    r7,#0x2000000
        0x08000eca:    2b01        .+      CMP      r3,#1
        0x08000ecc:    f04f32ff    O..2    MOV      r2,#0xffffffff
        0x08000ed0:    db03        ..      BLT      0x8000eda ; flash_read + 46
        0x08000ed2:    2900        .)      CMP      r1,#0
        0x08000ed4:    bf18        ..      IT       NE
        0x08000ed6:    4287        .B      CMPNE    r7,r0
        0x08000ed8:    d803        ..      BHI      0x8000ee2 ; flash_read + 54
        0x08000eda:    4610        .F      MOV      r0,r2
        0x08000edc:    b001        ..      ADD      sp,sp,#4
        0x08000ede:    e8bd83f0    ....    POP      {r4-r9,pc}
        0x08000ee2:    6837        7h      LDR      r7,[r6,#0]
        0x08000ee4:    18c2        ..      ADDS     r2,r0,r3
        0x08000ee6:    06ff        ..      LSLS     r7,r7,#27
        0x08000ee8:    f1a20201    ....    SUB      r2,r2,#1
        0x08000eec:    f44f1700    O...    MOV      r7,#0x200000
        0x08000ef0:    bf58        X.      IT       PL
        0x08000ef2:    f04f7700    O..w    MOVPL    r7,#0x2000000
        0x08000ef6:    4297        .B      CMP      r7,r2
        0x08000ef8:    d90d        ..      BLS      0x8000f16 ; flash_read + 106
        0x08000efa:    ea410200    A...    ORR      r2,r1,r0
        0x08000efe:    0792        ..      LSLS     r2,r2,#30
        0x08000f00:    d00c        ..      BEQ      0x8000f1c ; flash_read + 112
        0x08000f02:    1e5a        Z.      SUBS     r2,r3,#1
        0x08000f04:    2a03        .*      CMP      r2,#3
        0x08000f06:    f0030c03    ....    AND      r12,r3,#3
        0x08000f0a:    d23e        >.      BCS      0x8000f8a ; flash_read + 222
        0x08000f0c:    2300        .#      MOVS     r3,#0
        0x08000f0e:    f1bc0f00    ....    CMP      r12,#0
        0x08000f12:    d158        X.      BNE      0x8000fc6 ; flash_read + 282
        0x08000f14:    e060        `.      B        0x8000fd8 ; flash_read + 300
        0x08000f16:    f04f32ff    O..2    MOV      r2,#0xffffffff
        0x08000f1a:    e7de        ..      B        0x8000eda ; flash_read + 46
        0x08000f1c:    f0030203    ....    AND      r2,r3,#3
        0x08000f20:    1a9b        ..      SUBS     r3,r3,r2
        0x08000f22:    d027        '.      BEQ      0x8000f74 ; flash_read + 200
        0x08000f24:    f1006700    ...g    ADD      r7,r0,#0x8000000
        0x08000f28:    1cbc        ..      ADDS     r4,r7,#2
        0x08000f2a:    f1040c0a    ....    ADD      r12,r4,#0xa
        0x08000f2e:    f1040e06    ....    ADD      lr,r4,#6
        0x08000f32:    f1040902    ....    ADD      r9,r4,#2
        0x08000f36:    2500        .%      MOVS     r5,#0
        0x08000f38:    f04f6800    O..h    MOV      r8,#0x8000000
        0x08000f3c:    1947        G.      ADDS     r7,r0,r5
        0x08000f3e:    f8577008    W..p    LDR      r7,[r7,r8]
        0x08000f42:    1d2e        ..      ADDS     r6,r5,#4
        0x08000f44:    429e        .B      CMP      r6,r3
        0x08000f46:    514f        OQ      STR      r7,[r1,r5]
        0x08000f48:    d214        ..      BCS      0x8000f74 ; flash_read + 200
        0x08000f4a:    f8596005    Y..`    LDR      r6,[r9,r5]
        0x08000f4e:    f1050408    ....    ADD      r4,r5,#8
        0x08000f52:    194f        O.      ADDS     r7,r1,r5
        0x08000f54:    429c        .B      CMP      r4,r3
        0x08000f56:    607e        ~`      STR      r6,[r7,#4]
        0x08000f58:    d20c        ..      BCS      0x8000f74 ; flash_read + 200
        0x08000f5a:    f85e4005    ^..@    LDR      r4,[lr,r5]
        0x08000f5e:    f105060c    ....    ADD      r6,r5,#0xc
        0x08000f62:    429e        .B      CMP      r6,r3
        0x08000f64:    60bc        .`      STR      r4,[r7,#8]
        0x08000f66:    d205        ..      BCS      0x8000f74 ; flash_read + 200
        0x08000f68:    f85c4005    \..@    LDR      r4,[r12,r5]
        0x08000f6c:    3510        .5      ADDS     r5,r5,#0x10
        0x08000f6e:    429d        .B      CMP      r5,r3
        0x08000f70:    60fc        .`      STR      r4,[r7,#0xc]
        0x08000f72:    d3e3        ..      BCC      0x8000f3c ; flash_read + 144
        0x08000f74:    b3d2        ..      CBZ      r2,0x8000fec ; flash_read + 320
        0x08000f76:    eb030c01    ....    ADD      r12,r3,r1
        0x08000f7a:    4418        .D      ADD      r0,r0,r3
        0x08000f7c:    f1006100    ...a    ADD      r1,r0,#0x8000000
        0x08000f80:    4660        `F      MOV      r0,r12
        0x08000f82:    f7fff947    ..G.    BL       __aeabi_memcpy ; 0x8000214
        0x08000f86:    2200        ."      MOVS     r2,#0
        0x08000f88:    e7a7        ..      B        0x8000eda ; flash_read + 46
        0x08000f8a:    f1006200    ...b    ADD      r2,r0,#0x8000000
        0x08000f8e:    1c95        ..      ADDS     r5,r2,#2
        0x08000f90:    f1006200    ...b    ADD      r2,r0,#0x8000000
        0x08000f94:    eba3080c    ....    SUB      r8,r3,r12
        0x08000f98:    1c6c        l.      ADDS     r4,r5,#1
        0x08000f9a:    3201        .2      ADDS     r2,#1
        0x08000f9c:    2300        .#      MOVS     r3,#0
        0x08000f9e:    f04f6e00    O..n    MOV      lr,#0x8000000
        0x08000fa2:    bf00        ..      NOP      
        0x08000fa4:    18c7        ..      ADDS     r7,r0,r3
        0x08000fa6:    f817700e    ...p    LDRB     r7,[r7,lr]
        0x08000faa:    18ce        ..      ADDS     r6,r1,r3
        0x08000fac:    54cf        .T      STRB     r7,[r1,r3]
        0x08000fae:    5cd7        .\      LDRB     r7,[r2,r3]
        0x08000fb0:    7077        wp      STRB     r7,[r6,#1]
        0x08000fb2:    5cef        .\      LDRB     r7,[r5,r3]
        0x08000fb4:    70b7        .p      STRB     r7,[r6,#2]
        0x08000fb6:    5ce7        .\      LDRB     r7,[r4,r3]
        0x08000fb8:    3304        .3      ADDS     r3,#4
        0x08000fba:    4598        .E      CMP      r8,r3
        0x08000fbc:    70f7        .p      STRB     r7,[r6,#3]
        0x08000fbe:    d1f1        ..      BNE      0x8000fa4 ; flash_read + 248
        0x08000fc0:    f1bc0f00    ....    CMP      r12,#0
        0x08000fc4:    d008        ..      BEQ      0x8000fd8 ; flash_read + 300
        0x08000fc6:    f1006000    ...`    ADD      r0,r0,#0x8000000
        0x08000fca:    5cc2        .\      LDRB     r2,[r0,r3]
        0x08000fcc:    f1bc0f01    ....    CMP      r12,#1
        0x08000fd0:    54ca        .T      STRB     r2,[r1,r3]
        0x08000fd2:    d103        ..      BNE      0x8000fdc ; flash_read + 304
        0x08000fd4:    2200        ."      MOVS     r2,#0
        0x08000fd6:    e780        ..      B        0x8000eda ; flash_read + 46
        0x08000fd8:    2200        ."      MOVS     r2,#0
        0x08000fda:    e77e        ~.      B        0x8000eda ; flash_read + 46
        0x08000fdc:    1c5a        Z.      ADDS     r2,r3,#1
        0x08000fde:    5c87        .\      LDRB     r7,[r0,r2]
        0x08000fe0:    f1bc0f02    ....    CMP      r12,#2
        0x08000fe4:    548f        .T      STRB     r7,[r1,r2]
        0x08000fe6:    d103        ..      BNE      0x8000ff0 ; flash_read + 324
        0x08000fe8:    2200        ."      MOVS     r2,#0
        0x08000fea:    e776        v.      B        0x8000eda ; flash_read + 46
        0x08000fec:    2200        ."      MOVS     r2,#0
        0x08000fee:    e774        t.      B        0x8000eda ; flash_read + 46
        0x08000ff0:    1c9a        ..      ADDS     r2,r3,#2
        0x08000ff2:    5c80        .\      LDRB     r0,[r0,r2]
        0x08000ff4:    5488        .T      STRB     r0,[r1,r2]
        0x08000ff6:    2200        ."      MOVS     r2,#0
        0x08000ff8:    e76f        o.      B        0x8000eda ; flash_read + 46
        0x08000ffa:    0000        ..      MOVS     r0,r0
    flash_verify_read
        0x08000ffc:    e92d4ff0    -..O    PUSH     {r4-r11,lr}
        0x08001000:    b081        ..      SUB      sp,sp,#4
        0x08001002:    4617        .F      MOV      r7,r2
        0x08001004:    f242061c    B...    MOV      r6,#0x201c
        0x08001008:    2200        ."      MOVS     r2,#0
        0x0800100a:    f2c40602    ....    MOVT     r6,#0x4002
        0x0800100e:    f2c40208    ....    MOVT     r2,#0x4008
        0x08001012:    f8d68068    ..h.    LDR      r8,[r6,#0x68]
        0x08001016:    6812        .h      LDR      r2,[r2,#0]
        0x08001018:    460d        .F      MOV      r5,r1
        0x0800101a:    07d1        ..      LSLS     r1,r2,#31
        0x0800101c:    4682        .F      MOV      r10,r0
        0x0800101e:    d102        ..      BNE      0x8001026 ; flash_verify_read + 42
        0x08001020:    f04f0900    O...    MOV      r9,#0
        0x08001024:    e003        ..      B        0x800102e ; flash_verify_read + 50
        0x08001026:    f000fdaf    ....    BL       icache_disable ; 0x8001b88
        0x0800102a:    f04f0901    O...    MOV      r9,#1
        0x0800102e:    6830        0h      LDR      r0,[r6,#0]
        0x08001030:    06c0        ..      LSLS     r0,r0,#27
        0x08001032:    d424        $.      BMI      0x800107e ; flash_verify_read + 130
        0x08001034:    6830        0h      LDR      r0,[r6,#0]
        0x08001036:    f04f34ff    O..4    MOV      r4,#0xffffffff
        0x0800103a:    06c0        ..      LSLS     r0,r0,#27
        0x0800103c:    f44f1000    O...    MOV      r0,#0x200000
        0x08001040:    bf58        X.      IT       PL
        0x08001042:    f04f7000    O..p    MOVPL    r0,#0x2000000
        0x08001046:    2f01        ./      CMP      r7,#1
        0x08001048:    db40        @.      BLT      0x80010cc ; flash_verify_read + 208
        0x0800104a:    2d00        .-      CMP      r5,#0
        0x0800104c:    bf18        ..      IT       NE
        0x0800104e:    4550        PE      CMPNE    r0,r10
        0x08001050:    d93c        <.      BLS      0x80010cc ; flash_verify_read + 208
        0x08001052:    6831        1h      LDR      r1,[r6,#0]
        0x08001054:    eb0a0007    ....    ADD      r0,r10,r7
        0x08001058:    06c9        ..      LSLS     r1,r1,#27
        0x0800105a:    f1a00001    ....    SUB      r0,r0,#1
        0x0800105e:    f44f1100    O...    MOV      r1,#0x200000
        0x08001062:    bf58        X.      IT       PL
        0x08001064:    f04f7100    O..q    MOVPL    r1,#0x2000000
        0x08001068:    4281        .B      CMP      r1,r0
        0x0800106a:    d953        S.      BLS      0x8001114 ; flash_verify_read + 280
        0x0800106c:    b672        r.      CPSID    i
        0x0800106e:    4650        PF      MOV      r0,r10
        0x08001070:    4629        )F      MOV      r1,r5
        0x08001072:    463a        :F      MOV      r2,r7
        0x08001074:    f002f943    ..C.    BL       $Ven$TT$L$$qspi_flash_read ; 0x80032fe
        0x08001078:    b662        b.      CPSIE    i
        0x0800107a:    4604        .F      MOV      r4,r0
        0x0800107c:    e026        &.      B        0x80010cc ; flash_verify_read + 208
        0x0800107e:    b672        r.      CPSID    i
        0x08001080:    f000fb2a    ..*.    BL       fmc_unlock ; 0x80016d8
        0x08001084:    f000feb4    ....    BL       ob_unlock ; 0x8001df0
        0x08001088:    2000        .       MOVS     r0,#0
        0x0800108a:    f000fa75    ..u.    BL       fmc_offset_value_config ; 0x8001578
        0x0800108e:    f000fea5    ....    BL       ob_lock ; 0x8001ddc
        0x08001092:    f000fa19    ....    BL       fmc_lock ; 0x80014c8
        0x08001096:    6830        0h      LDR      r0,[r6,#0]
        0x08001098:    f04f34ff    O..4    MOV      r4,#0xffffffff
        0x0800109c:    06c0        ..      LSLS     r0,r0,#27
        0x0800109e:    f44f1000    O...    MOV      r0,#0x200000
        0x080010a2:    bf58        X.      IT       PL
        0x080010a4:    f04f7000    O..p    MOVPL    r0,#0x2000000
        0x080010a8:    2f01        ./      CMP      r7,#1
        0x080010aa:    db03        ..      BLT      0x80010b4 ; flash_verify_read + 184
        0x080010ac:    2d00        .-      CMP      r5,#0
        0x080010ae:    bf18        ..      IT       NE
        0x080010b0:    4550        PE      CMPNE    r0,r10
        0x080010b2:    d814        ..      BHI      0x80010de ; flash_verify_read + 226
        0x080010b4:    f000fb10    ....    BL       fmc_unlock ; 0x80016d8
        0x080010b8:    f000fe9a    ....    BL       ob_unlock ; 0x8001df0
        0x080010bc:    4640        @F      MOV      r0,r8
        0x080010be:    f000fa5b    ..[.    BL       fmc_offset_value_config ; 0x8001578
        0x080010c2:    f000fe8b    ....    BL       ob_lock ; 0x8001ddc
        0x080010c6:    f000f9ff    ....    BL       fmc_lock ; 0x80014c8
        0x080010ca:    b662        b.      CPSIE    i
        0x080010cc:    f1b90f00    ....    CMP      r9,#0
        0x080010d0:    bf18        ..      IT       NE
        0x080010d2:    f000fd93    ....    BLNE     icache_enable ; 0x8001bfc
        0x080010d6:    4620         F      MOV      r0,r4
        0x080010d8:    b001        ..      ADD      sp,sp,#4
        0x080010da:    e8bd8ff0    ....    POP      {r4-r11,pc}
        0x080010de:    6831        1h      LDR      r1,[r6,#0]
        0x080010e0:    eb0a0007    ....    ADD      r0,r10,r7
        0x080010e4:    06c9        ..      LSLS     r1,r1,#27
        0x080010e6:    f1a00001    ....    SUB      r0,r0,#1
        0x080010ea:    f44f1100    O...    MOV      r1,#0x200000
        0x080010ee:    bf58        X.      IT       PL
        0x080010f0:    f04f7100    O..q    MOVPL    r1,#0x2000000
        0x080010f4:    4281        .B      CMP      r1,r0
        0x080010f6:    d910        ..      BLS      0x800111a ; flash_verify_read + 286
        0x080010f8:    ea45000a    E...    ORR      r0,r5,r10
        0x080010fc:    0780        ..      LSLS     r0,r0,#30
        0x080010fe:    d00f        ..      BEQ      0x8001120 ; flash_verify_read + 292
        0x08001100:    1e78        x.      SUBS     r0,r7,#1
        0x08001102:    2803        .(      CMP      r0,#3
        0x08001104:    f0070c03    ....    AND      r12,r7,#3
        0x08001108:    d23d        =.      BCS      0x8001186 ; flash_verify_read + 394
        0x0800110a:    2100        .!      MOVS     r1,#0
        0x0800110c:    f1bc0f00    ....    CMP      r12,#0
        0x08001110:    d158        X.      BNE      0x80011c4 ; flash_verify_read + 456
        0x08001112:    e067        g.      B        0x80011e4 ; flash_verify_read + 488
        0x08001114:    f04f34ff    O..4    MOV      r4,#0xffffffff
        0x08001118:    e7d8        ..      B        0x80010cc ; flash_verify_read + 208
        0x0800111a:    f04f34ff    O..4    MOV      r4,#0xffffffff
        0x0800111e:    e7c9        ..      B        0x80010b4 ; flash_verify_read + 184
        0x08001120:    f0070203    ....    AND      r2,r7,#3
        0x08001124:    1ab9        ..      SUBS     r1,r7,r2
        0x08001126:    d026        &.      BEQ      0x8001176 ; flash_verify_read + 378
        0x08001128:    f10a6000    ...`    ADD      r0,r10,#0x8000000
        0x0800112c:    1c87        ..      ADDS     r7,r0,#2
        0x0800112e:    f1070e0a    ....    ADD      lr,r7,#0xa
        0x08001132:    f1070b06    ....    ADD      r11,r7,#6
        0x08001136:    3702        .7      ADDS     r7,#2
        0x08001138:    2600        .&      MOVS     r6,#0
        0x0800113a:    f04f6c00    O..l    MOV      r12,#0x8000000
        0x0800113e:    eb0a0406    ....    ADD      r4,r10,r6
        0x08001142:    f854400c    T..@    LDR      r4,[r4,r12]
        0x08001146:    1d30        0.      ADDS     r0,r6,#4
        0x08001148:    4288        .B      CMP      r0,r1
        0x0800114a:    51ac        .Q      STR      r4,[r5,r6]
        0x0800114c:    d213        ..      BCS      0x8001176 ; flash_verify_read + 378
        0x0800114e:    59b8        .Y      LDR      r0,[r7,r6]
        0x08001150:    f1060308    ....    ADD      r3,r6,#8
        0x08001154:    19ac        ..      ADDS     r4,r5,r6
        0x08001156:    428b        .B      CMP      r3,r1
        0x08001158:    6060        ``      STR      r0,[r4,#4]
        0x0800115a:    d20c        ..      BCS      0x8001176 ; flash_verify_read + 378
        0x0800115c:    f85b0006    [...    LDR      r0,[r11,r6]
        0x08001160:    f106030c    ....    ADD      r3,r6,#0xc
        0x08001164:    428b        .B      CMP      r3,r1
        0x08001166:    60a0        .`      STR      r0,[r4,#8]
        0x08001168:    d205        ..      BCS      0x8001176 ; flash_verify_read + 378
        0x0800116a:    f85e0006    ^...    LDR      r0,[lr,r6]
        0x0800116e:    3610        .6      ADDS     r6,r6,#0x10
        0x08001170:    428e        .B      CMP      r6,r1
        0x08001172:    60e0        .`      STR      r0,[r4,#0xc]
        0x08001174:    d3e3        ..      BCC      0x800113e ; flash_verify_read + 322
        0x08001176:    b3aa        ..      CBZ      r2,0x80011e4 ; flash_verify_read + 488
        0x08001178:    1948        H.      ADDS     r0,r1,r5
        0x0800117a:    4451        QD      ADD      r1,r1,r10
        0x0800117c:    f1016100    ...a    ADD      r1,r1,#0x8000000
        0x08001180:    f7fff848    ..H.    BL       __aeabi_memcpy ; 0x8000214
        0x08001184:    e02e        ..      B        0x80011e4 ; flash_verify_read + 488
        0x08001186:    f10a6100    ...a    ADD      r1,r10,#0x8000000
        0x0800118a:    1c8b        ..      ADDS     r3,r1,#2
        0x0800118c:    f10a6100    ...a    ADD      r1,r10,#0x8000000
        0x08001190:    eba7020c    ....    SUB      r2,r7,r12
        0x08001194:    1c5f        _.      ADDS     r7,r3,#1
        0x08001196:    1c4e        N.      ADDS     r6,r1,#1
        0x08001198:    2100        .!      MOVS     r1,#0
        0x0800119a:    f04f6e00    O..n    MOV      lr,#0x8000000
        0x0800119e:    bf00        ..      NOP      
        0x080011a0:    eb0a0001    ....    ADD      r0,r10,r1
        0x080011a4:    f810000e    ....    LDRB     r0,[r0,lr]
        0x080011a8:    186c        l.      ADDS     r4,r5,r1
        0x080011aa:    5468        hT      STRB     r0,[r5,r1]
        0x080011ac:    5c70        p\      LDRB     r0,[r6,r1]
        0x080011ae:    7060        `p      STRB     r0,[r4,#1]
        0x080011b0:    5c58        X\      LDRB     r0,[r3,r1]
        0x080011b2:    70a0        .p      STRB     r0,[r4,#2]
        0x080011b4:    5c78        x\      LDRB     r0,[r7,r1]
        0x080011b6:    3104        .1      ADDS     r1,#4
        0x080011b8:    428a        .B      CMP      r2,r1
        0x080011ba:    70e0        .p      STRB     r0,[r4,#3]
        0x080011bc:    d1f0        ..      BNE      0x80011a0 ; flash_verify_read + 420
        0x080011be:    f1bc0f00    ....    CMP      r12,#0
        0x080011c2:    d00f        ..      BEQ      0x80011e4 ; flash_verify_read + 488
        0x080011c4:    f10a6200    ...b    ADD      r2,r10,#0x8000000
        0x080011c8:    5c50        P\      LDRB     r0,[r2,r1]
        0x080011ca:    f1bc0f01    ....    CMP      r12,#1
        0x080011ce:    5468        hT      STRB     r0,[r5,r1]
        0x080011d0:    d008        ..      BEQ      0x80011e4 ; flash_verify_read + 488
        0x080011d2:    1c48        H.      ADDS     r0,r1,#1
        0x080011d4:    5c13        .\      LDRB     r3,[r2,r0]
        0x080011d6:    f1bc0f02    ....    CMP      r12,#2
        0x080011da:    542b        +T      STRB     r3,[r5,r0]
        0x080011dc:    d002        ..      BEQ      0x80011e4 ; flash_verify_read + 488
        0x080011de:    1c88        ..      ADDS     r0,r1,#2
        0x080011e0:    5c11        .\      LDRB     r1,[r2,r0]
        0x080011e2:    5429        )T      STRB     r1,[r5,r0]
        0x080011e4:    2400        .$      MOVS     r4,#0
        0x080011e6:    e765        e.      B        0x80010b4 ; flash_verify_read + 184
    flash_write
        0x080011e8:    b5f0        ..      PUSH     {r4-r7,lr}
        0x080011ea:    b081        ..      SUB      sp,sp,#4
        0x080011ec:    460c        .F      MOV      r4,r1
        0x080011ee:    f242011c    B...    MOV      r1,#0x201c
        0x080011f2:    f2c40102    ....    MOVT     r1,#0x4002
        0x080011f6:    4615        .F      MOV      r5,r2
        0x080011f8:    680a        .h      LDR      r2,[r1,#0]
        0x080011fa:    4606        .F      MOV      r6,r0
        0x080011fc:    06d0        ..      LSLS     r0,r2,#27
        0x080011fe:    f44f1200    O...    MOV      r2,#0x200000
        0x08001202:    bf58        X.      IT       PL
        0x08001204:    f04f7200    O..r    MOVPL    r2,#0x2000000
        0x08001208:    2d01        .-      CMP      r5,#1
        0x0800120a:    f04f30ff    O..0    MOV      r0,#0xffffffff
        0x0800120e:    db03        ..      BLT      0x8001218 ; flash_write + 48
        0x08001210:    2c00        .,      CMP      r4,#0
        0x08001212:    bf18        ..      IT       NE
        0x08001214:    42b2        .B      CMPNE    r2,r6
        0x08001216:    d801        ..      BHI      0x800121c ; flash_write + 52
        0x08001218:    b001        ..      ADD      sp,sp,#4
        0x0800121a:    bdf0        ..      POP      {r4-r7,pc}
        0x0800121c:    680a        .h      LDR      r2,[r1,#0]
        0x0800121e:    1970        p.      ADDS     r0,r6,r5
        0x08001220:    06d2        ..      LSLS     r2,r2,#27
        0x08001222:    f1a00001    ....    SUB      r0,r0,#1
        0x08001226:    f44f1200    O...    MOV      r2,#0x200000
        0x0800122a:    bf58        X.      IT       PL
        0x0800122c:    f04f7200    O..r    MOVPL    r2,#0x2000000
        0x08001230:    4282        .B      CMP      r2,r0
        0x08001232:    bf9e        ..      ITTT     LS
        0x08001234:    f04f30ff    O..0    MOVLS    r0,#0xffffffff
        0x08001238:    b001        ..      ADDLS    sp,sp,#4
        0x0800123a:    bdf0        ..      POPLS    {r4-r7,pc}
        0x0800123c:    6808        .h      LDR      r0,[r1,#0]
        0x0800123e:    06c0        ..      LSLS     r0,r0,#27
        0x08001240:    d427        '.      BMI      0x8001292 ; flash_write + 170
        0x08001242:    b2f0        ..      UXTB     r0,r6
        0x08001244:    b180        ..      CBZ      r0,0x8001268 ; flash_write + 128
        0x08001246:    b672        r.      CPSID    i
        0x08001248:    f5c07780    ...w    RSB      r7,r0,#0x100
        0x0800124c:    42af        .B      CMP      r7,r5
        0x0800124e:    bf28        (.      IT       CS
        0x08001250:    462f        /F      MOVCS    r7,r5
        0x08001252:    4630        0F      MOV      r0,r6
        0x08001254:    4621        !F      MOV      r1,r4
        0x08001256:    463a        :F      MOV      r2,r7
        0x08001258:    f002f84c    ..L.    BL       $Ven$TT$L$$qspi_flash_page_program ; 0x80032f4
        0x0800125c:    b662        b.      CPSIE    i
        0x0800125e:    1bed        ..      SUBS     r5,r5,r7
        0x08001260:    2d01        .-      CMP      r5,#1
        0x08001262:    db79        y.      BLT      0x8001358 ; flash_write + 368
        0x08001264:    443e        >D      ADD      r6,r6,r7
        0x08001266:    443c        <D      ADD      r4,r4,r7
        0x08001268:    b672        r.      CPSID    i
        0x0800126a:    462f        /F      MOV      r7,r5
        0x0800126c:    f5b57f80    ....    CMP      r5,#0x100
        0x08001270:    bfa8        ..      IT       GE
        0x08001272:    f44f7780    O..w    MOVGE    r7,#0x100
        0x08001276:    4630        0F      MOV      r0,r6
        0x08001278:    4621        !F      MOV      r1,r4
        0x0800127a:    463a        :F      MOV      r2,r7
        0x0800127c:    f002f83a    ..:.    BL       $Ven$TT$L$$qspi_flash_page_program ; 0x80032f4
        0x08001280:    b662        b.      CPSIE    i
        0x08001282:    1bed        ..      SUBS     r5,r5,r7
        0x08001284:    443e        >D      ADD      r6,r6,r7
        0x08001286:    2d00        .-      CMP      r5,#0
        0x08001288:    443c        <D      ADD      r4,r4,r7
        0x0800128a:    dced        ..      BGT      0x8001268 ; flash_write + 128
        0x0800128c:    2000        .       MOVS     r0,#0
        0x0800128e:    b001        ..      ADD      sp,sp,#4
        0x08001290:    bdf0        ..      POP      {r4-r7,pc}
        0x08001292:    f04f30ff    O..0    MOV      r0,#0xffffffff
        0x08001296:    9000        ..      STR      r0,[sp,#0]
        0x08001298:    f000fa1e    ....    BL       fmc_unlock ; 0x80016d8
        0x0800129c:    2030        0       MOVS     r0,#0x30
        0x0800129e:    f000f90d    ....    BL       fmc_flag_clear ; 0x80014bc
        0x080012a2:    f0160003    ....    ANDS     r0,r6,#3
        0x080012a6:    f0260703    &...    BIC      r7,r6,#3
        0x080012aa:    d017        ..      BEQ      0x80012dc ; flash_write + 244
        0x080012ac:    f1c00604    ....    RSB      r6,r0,#4
        0x080012b0:    42ae        .B      CMP      r6,r5
        0x080012b2:    bfc8        ..      IT       GT
        0x080012b4:    462e        .F      MOVGT    r6,r5
        0x080012b6:    2e01        ..      CMP      r6,#1
        0x080012b8:    db07        ..      BLT      0x80012ca ; flash_write + 226
        0x080012ba:    4669        iF      MOV      r1,sp
        0x080012bc:    4408        .D      ADD      r0,r0,r1
        0x080012be:    4621        !F      MOV      r1,r4
        0x080012c0:    4632        2F      MOV      r2,r6
        0x080012c2:    f7feffa7    ....    BL       __aeabi_memcpy ; 0x8000214
        0x080012c6:    9900        ..      LDR      r1,[sp,#0]
        0x080012c8:    e001        ..      B        0x80012ce ; flash_write + 230
        0x080012ca:    f04f31ff    O..1    MOV      r1,#0xffffffff
        0x080012ce:    f1076000    ...`    ADD      r0,r7,#0x8000000
        0x080012d2:    f000fa15    ....    BL       fmc_word_program ; 0x8001700
        0x080012d6:    3704        .7      ADDS     r7,#4
        0x080012d8:    4434        4D      ADD      r4,r4,r6
        0x080012da:    1bad        ..      SUBS     r5,r5,r6
        0x080012dc:    2d04        .-      CMP      r5,#4
        0x080012de:    db0e        ..      BLT      0x80012fe ; flash_write + 278
        0x080012e0:    462e        .F      MOV      r6,r5
        0x080012e2:    bf00        ..      NOP      
        0x080012e4:    f8541b04    T...    LDR      r1,[r4],#4
        0x080012e8:    f1076000    ...`    ADD      r0,r7,#0x8000000
        0x080012ec:    f000fa08    ....    BL       fmc_word_program ; 0x8001700
        0x080012f0:    3e04        .>      SUBS     r6,#4
        0x080012f2:    2e03        ..      CMP      r6,#3
        0x080012f4:    f1070704    ....    ADD      r7,r7,#4
        0x080012f8:    dcf4        ..      BGT      0x80012e4 ; flash_write + 252
        0x080012fa:    f0050503    ....    AND      r5,r5,#3
        0x080012fe:    2d01        .-      CMP      r5,#1
        0x08001300:    db28        (.      BLT      0x8001354 ; flash_write + 364
        0x08001302:    1e68        h.      SUBS     r0,r5,#1
        0x08001304:    2803        .(      CMP      r0,#3
        0x08001306:    f0050003    ....    AND      r0,r5,#3
        0x0800130a:    d203        ..      BCS      0x8001314 ; flash_write + 300
        0x0800130c:    f06f02ff    o...    MVN      r2,#0xff
        0x08001310:    b958        X.      CBNZ     r0,0x800132a ; flash_write + 322
        0x08001312:    e01b        ..      B        0x800134c ; flash_write + 356
        0x08001314:    1ea1        ..      SUBS     r1,r4,#2
        0x08001316:    bf00        ..      NOP      
        0x08001318:    462a        *F      MOV      r2,r5
        0x0800131a:    3d04        .=      SUBS     r5,#4
        0x0800131c:    42a8        .B      CMP      r0,r5
        0x0800131e:    d1fb        ..      BNE      0x8001318 ; flash_write + 304
        0x08001320:    4411        .D      ADD      r1,r1,r2
        0x08001322:    f8511c02    Q...    LDR      r1,[r1,#-2]
        0x08001326:    020a        ..      LSLS     r2,r1,#8
        0x08001328:    b180        ..      CBZ      r0,0x800134c ; flash_write + 356
        0x0800132a:    1963        c.      ADDS     r3,r4,r5
        0x0800132c:    f8131c01    ....    LDRB     r1,[r3,#-1]
        0x08001330:    2801        .(      CMP      r0,#1
        0x08001332:    ea410102    A...    ORR      r1,r1,r2
        0x08001336:    d009        ..      BEQ      0x800134c ; flash_write + 356
        0x08001338:    f8132c02    ...,    LDRB     r2,[r3,#-2]
        0x0800133c:    2802        .(      CMP      r0,#2
        0x0800133e:    ea422101    B..!    ORR      r1,r2,r1,LSL #8
        0x08001342:    d003        ..      BEQ      0x800134c ; flash_write + 356
        0x08001344:    f8130c03    ....    LDRB     r0,[r3,#-3]
        0x08001348:    ea402101    @..!    ORR      r1,r0,r1,LSL #8
        0x0800134c:    f1076000    ...`    ADD      r0,r7,#0x8000000
        0x08001350:    f000f9d6    ....    BL       fmc_word_program ; 0x8001700
        0x08001354:    f000f8b8    ....    BL       fmc_lock ; 0x80014c8
        0x08001358:    2000        .       MOVS     r0,#0
        0x0800135a:    b001        ..      ADD      sp,sp,#4
        0x0800135c:    bdf0        ..      POP      {r4-r7,pc}
        0x0800135e:    0000        ..      MOVS     r0,r0
    fmc_continuous_program
        0x08001360:    b5b0        ..      PUSH     {r4,r5,r7,lr}
        0x08001362:    f2420e0c    B...    MOV      lr,#0x200c
        0x08001366:    f04f437f    O..C    MOV      r3,#0xff000000
        0x0800136a:    f2c40e02    ....    MOVT     lr,#0x4002
        0x0800136e:    f8de4000    ...@    LDR      r4,[lr,#0]
        0x08001372:    07e4        ..      LSLS     r4,r4,#31
        0x08001374:    bf1c        ..      ITT      NE
        0x08001376:    f8de4000    ...@    LDRNE    r4,[lr,#0]
        0x0800137a:    ea5f74c4    _..t    LSLSNE   r4,r4,#31
        0x0800137e:    d044        D.      BEQ      0x800140a ; fmc_continuous_program + 170
        0x08001380:    f8de5000    ...P    LDR      r5,[lr,#0]
        0x08001384:    07ed        ..      LSLS     r5,r5,#31
        0x08001386:    bf1c        ..      ITT      NE
        0x08001388:    f8de5000    ...P    LDRNE    r5,[lr,#0]
        0x0800138c:    ea5f75c5    _..u    LSLSNE   r5,r5,#31
        0x08001390:    d03b        ;.      BEQ      0x800140a ; fmc_continuous_program + 170
        0x08001392:    f8de5000    ...P    LDR      r5,[lr,#0]
        0x08001396:    07ed        ..      LSLS     r5,r5,#31
        0x08001398:    bf1c        ..      ITT      NE
        0x0800139a:    f8de5000    ...P    LDRNE    r5,[lr,#0]
        0x0800139e:    ea5f75c5    _..u    LSLSNE   r5,r5,#31
        0x080013a2:    d032        2.      BEQ      0x800140a ; fmc_continuous_program + 170
        0x080013a4:    f8de5000    ...P    LDR      r5,[lr,#0]
        0x080013a8:    07ed        ..      LSLS     r5,r5,#31
        0x080013aa:    bf1c        ..      ITT      NE
        0x080013ac:    f8de5000    ...P    LDRNE    r5,[lr,#0]
        0x080013b0:    ea5f75c5    _..u    LSLSNE   r5,r5,#31
        0x080013b4:    d029        ).      BEQ      0x800140a ; fmc_continuous_program + 170
        0x080013b6:    f8de5000    ...P    LDR      r5,[lr,#0]
        0x080013ba:    07ed        ..      LSLS     r5,r5,#31
        0x080013bc:    bf1c        ..      ITT      NE
        0x080013be:    f8de5000    ...P    LDRNE    r5,[lr,#0]
        0x080013c2:    ea5f75c5    _..u    LSLSNE   r5,r5,#31
        0x080013c6:    d020         .      BEQ      0x800140a ; fmc_continuous_program + 170
        0x080013c8:    f8de5000    ...P    LDR      r5,[lr,#0]
        0x080013cc:    07ed        ..      LSLS     r5,r5,#31
        0x080013ce:    bf1c        ..      ITT      NE
        0x080013d0:    f8de5000    ...P    LDRNE    r5,[lr,#0]
        0x080013d4:    ea5f75c5    _..u    LSLSNE   r5,r5,#31
        0x080013d8:    d017        ..      BEQ      0x800140a ; fmc_continuous_program + 170
        0x080013da:    f8de5000    ...P    LDR      r5,[lr,#0]
        0x080013de:    07ed        ..      LSLS     r5,r5,#31
        0x080013e0:    bf1c        ..      ITT      NE
        0x080013e2:    f8de5000    ...P    LDRNE    r5,[lr,#0]
        0x080013e6:    ea5f75c5    _..u    LSLSNE   r5,r5,#31
        0x080013ea:    d00e        ..      BEQ      0x800140a ; fmc_continuous_program + 170
        0x080013ec:    f8de5000    ...P    LDR      r5,[lr,#0]
        0x080013f0:    07ed        ..      LSLS     r5,r5,#31
        0x080013f2:    bf1c        ..      ITT      NE
        0x080013f4:    f8de5000    ...P    LDRNE    r5,[lr,#0]
        0x080013f8:    ea5f75c5    _..u    LSLSNE   r5,r5,#31
        0x080013fc:    d005        ..      BEQ      0x800140a ; fmc_continuous_program + 170
        0x080013fe:    3310        .3      ADDS     r3,r3,#0x10
        0x08001400:    d1b5        ..      BNE      0x800136e ; fmc_continuous_program + 14
        0x08001402:    f04f0c03    O...    MOV      r12,#3
        0x08001406:    4660        `F      MOV      r0,r12
        0x08001408:    bdb0        ..      POP      {r4,r5,r7,pc}
        0x0800140a:    f8de3000    ...0    LDR      r3,[lr,#0]
        0x0800140e:    06db        ..      LSLS     r3,r3,#27
        0x08001410:    bf42        B.      ITTT     MI
        0x08001412:    f04f0c02    O...    MOVMI    r12,#2
        0x08001416:    4660        `F      MOVMI    r0,r12
        0x08001418:    bdb0        ..      POPMI    {r4,r5,r7,pc}
        0x0800141a:    f8de3000    ...0    LDR      r3,[lr,#0]
        0x0800141e:    2404        .$      MOVS     r4,#4
        0x08001420:    ea040c53    ..S.    AND      r12,r4,r3,LSR #1
        0x08001424:    f1bc0f00    ....    CMP      r12,#0
        0x08001428:    d145        E.      BNE      0x80014b6 ; fmc_continuous_program + 342
        0x0800142a:    f8de3004    ...0    LDR      r3,[lr,#4]
        0x0800142e:    2400        .$      MOVS     r4,#0
        0x08001430:    ebb40f92    ....    CMP      r4,r2,LSR #2
        0x08001434:    f0430301    C...    ORR      r3,r3,#1
        0x08001438:    f8ce3004    ...0    STR      r3,[lr,#4]
        0x0800143c:    d033        3.      BEQ      0x80014a6 ; fmc_continuous_program + 326
        0x0800143e:    0893        ..      LSRS     r3,r2,#2
        0x08001440:    1e5a        Z.      SUBS     r2,r3,#1
        0x08001442:    2a03        .*      CMP      r2,#3
        0x08001444:    f0030c03    ....    AND      r12,r3,#3
        0x08001448:    d204        ..      BCS      0x8001454 ; fmc_continuous_program + 244
        0x0800144a:    2300        .#      MOVS     r3,#0
        0x0800144c:    f1bc0f00    ....    CMP      r12,#0
        0x08001450:    d11a        ..      BNE      0x8001488 ; fmc_continuous_program + 296
        0x08001452:    e028        (.      B        0x80014a6 ; fmc_continuous_program + 326
        0x08001454:    f1010208    ....    ADD      r2,r1,#8
        0x08001458:    eba3040c    ....    SUB      r4,r3,r12
        0x0800145c:    2300        .#      MOVS     r3,#0
        0x0800145e:    bf00        ..      NOP      
        0x08001460:    f8525c08    R..\    LDR      r5,[r2,#-8]
        0x08001464:    3304        .3      ADDS     r3,#4
        0x08001466:    6005        .`      STR      r5,[r0,#0]
        0x08001468:    f8525c04    R..\    LDR      r5,[r2,#-4]
        0x0800146c:    429c        .B      CMP      r4,r3
        0x0800146e:    6045        E`      STR      r5,[r0,#4]
        0x08001470:    6815        .h      LDR      r5,[r2,#0]
        0x08001472:    6085        .`      STR      r5,[r0,#8]
        0x08001474:    6855        Uh      LDR      r5,[r2,#4]
        0x08001476:    f1020210    ....    ADD      r2,r2,#0x10
        0x0800147a:    60c5        .`      STR      r5,[r0,#0xc]
        0x0800147c:    f1000010    ....    ADD      r0,r0,#0x10
        0x08001480:    d1ee        ..      BNE      0x8001460 ; fmc_continuous_program + 256
        0x08001482:    f1bc0f00    ....    CMP      r12,#0
        0x08001486:    d00e        ..      BEQ      0x80014a6 ; fmc_continuous_program + 326
        0x08001488:    f8512023    Q.#     LDR      r2,[r1,r3,LSL #2]
        0x0800148c:    f1bc0f01    ....    CMP      r12,#1
        0x08001490:    6002        .`      STR      r2,[r0,#0]
        0x08001492:    d008        ..      BEQ      0x80014a6 ; fmc_continuous_program + 326
        0x08001494:    eb010183    ....    ADD      r1,r1,r3,LSL #2
        0x08001498:    f1bc0f02    ....    CMP      r12,#2
        0x0800149c:    684a        Jh      LDR      r2,[r1,#4]
        0x0800149e:    6042        B`      STR      r2,[r0,#4]
        0x080014a0:    d001        ..      BEQ      0x80014a6 ; fmc_continuous_program + 326
        0x080014a2:    6889        .h      LDR      r1,[r1,#8]
        0x080014a4:    6081        .`      STR      r1,[r0,#8]
        0x080014a6:    f8de0004    ....    LDR      r0,[lr,#4]
        0x080014aa:    f04f0c00    O...    MOV      r12,#0
        0x080014ae:    f0200001     ...    BIC      r0,r0,#1
        0x080014b2:    f8ce0004    ....    STR      r0,[lr,#4]
        0x080014b6:    4660        `F      MOV      r0,r12
        0x080014b8:    bdb0        ..      POP      {r4,r5,r7,pc}
        0x080014ba:    0000        ..      MOVS     r0,r0
    fmc_flag_clear
        0x080014bc:    f242010c    B...    MOV      r1,#0x200c
        0x080014c0:    f2c40102    ....    MOVT     r1,#0x4002
        0x080014c4:    6008        .`      STR      r0,[r1,#0]
        0x080014c6:    4770        pG      BX       lr
    fmc_lock
        0x080014c8:    f2420010    B...    MOV      r0,#0x2010
        0x080014cc:    f2c40002    ....    MOVT     r0,#0x4002
        0x080014d0:    6801        .h      LDR      r1,[r0,#0]
        0x080014d2:    f0410180    A...    ORR      r1,r1,#0x80
        0x080014d6:    6001        .`      STR      r1,[r0,#0]
        0x080014d8:    4770        pG      BX       lr
        0x080014da:    0000        ..      MOVS     r0,r0
    fmc_no_rtdec_config
        0x080014dc:    2a03        .*      CMP      r2,#3
        0x080014de:    bf88        ..      IT       HI
        0x080014e0:    4770        pG      BXHI     lr
        0x080014e2:    e8dff002    ....    TBB      [pc,r2]
    $d.27
        0x080014e6:    2c02        .,      DCW    11266
        0x080014e8:    1e10        ..      DCW    7696
    $t.28
        0x080014ea:    f2420270    B.p.    MOV      r2,#0x2070
        0x080014ee:    f2c40202    ....    MOVT     r2,#0x4002
        0x080014f2:    2300        .#      MOVS     r3,#0
        0x080014f4:    6013        .`      STR      r3,[r2,#0]
        0x080014f6:    6813        .h      LDR      r3,[r2,#0]
        0x080014f8:    4318        .C      ORRS     r0,r0,r3
        0x080014fa:    6010        .`      STR      r0,[r2,#0]
        0x080014fc:    6810        .h      LDR      r0,[r2,#0]
        0x080014fe:    ea404001    @..@    ORR      r0,r0,r1,LSL #16
        0x08001502:    6010        .`      STR      r0,[r2,#0]
        0x08001504:    4770        pG      BX       lr
        0x08001506:    f2420270    B.p.    MOV      r2,#0x2070
        0x0800150a:    f2c40202    ....    MOVT     r2,#0x4002
        0x0800150e:    2300        .#      MOVS     r3,#0
        0x08001510:    6093        .`      STR      r3,[r2,#8]
        0x08001512:    6893        .h      LDR      r3,[r2,#8]
        0x08001514:    4318        .C      ORRS     r0,r0,r3
        0x08001516:    6090        .`      STR      r0,[r2,#8]
        0x08001518:    6890        .h      LDR      r0,[r2,#8]
        0x0800151a:    ea404001    @..@    ORR      r0,r0,r1,LSL #16
        0x0800151e:    6090        .`      STR      r0,[r2,#8]
        0x08001520:    4770        pG      BX       lr
        0x08001522:    f2420270    B.p.    MOV      r2,#0x2070
        0x08001526:    f2c40202    ....    MOVT     r2,#0x4002
        0x0800152a:    2300        .#      MOVS     r3,#0
        0x0800152c:    60d3        .`      STR      r3,[r2,#0xc]
        0x0800152e:    68d3        .h      LDR      r3,[r2,#0xc]
        0x08001530:    4318        .C      ORRS     r0,r0,r3
        0x08001532:    60d0        .`      STR      r0,[r2,#0xc]
        0x08001534:    68d0        .h      LDR      r0,[r2,#0xc]
        0x08001536:    ea404001    @..@    ORR      r0,r0,r1,LSL #16
        0x0800153a:    60d0        .`      STR      r0,[r2,#0xc]
        0x0800153c:    4770        pG      BX       lr
        0x0800153e:    f2420270    B.p.    MOV      r2,#0x2070
        0x08001542:    f2c40202    ....    MOVT     r2,#0x4002
        0x08001546:    2300        .#      MOVS     r3,#0
        0x08001548:    6053        S`      STR      r3,[r2,#4]
        0x0800154a:    6853        Sh      LDR      r3,[r2,#4]
        0x0800154c:    4318        .C      ORRS     r0,r0,r3
        0x0800154e:    6050        P`      STR      r0,[r2,#4]
        0x08001550:    6850        Ph      LDR      r0,[r2,#4]
        0x08001552:    ea404001    @..@    ORR      r0,r0,r1,LSL #16
        0x08001556:    6050        P`      STR      r0,[r2,#4]
        0x08001558:    4770        pG      BX       lr
        0x0800155a:    0000        ..      MOVS     r0,r0
    fmc_offset_region_config
        0x0800155c:    f2420280    B...    MOVW     r2,#0x2080
        0x08001560:    f2c40202    ....    MOVT     r2,#0x4002
        0x08001564:    2300        .#      MOVS     r3,#0
        0x08001566:    6013        .`      STR      r3,[r2,#0]
        0x08001568:    6813        .h      LDR      r3,[r2,#0]
        0x0800156a:    4318        .C      ORRS     r0,r0,r3
        0x0800156c:    6010        .`      STR      r0,[r2,#0]
        0x0800156e:    6810        .h      LDR      r0,[r2,#0]
        0x08001570:    ea404001    @..@    ORR      r0,r0,r1,LSL #16
        0x08001574:    6010        .`      STR      r0,[r2,#0]
        0x08001576:    4770        pG      BX       lr
    fmc_offset_value_config
        0x08001578:    f2420184    B...    MOV      r1,#0x2084
        0x0800157c:    f2c40102    ....    MOVT     r1,#0x4002
        0x08001580:    2200        ."      MOVS     r2,#0
        0x08001582:    600a        .`      STR      r2,[r1,#0]
        0x08001584:    680a        .h      LDR      r2,[r1,#0]
        0x08001586:    4310        .C      ORRS     r0,r0,r2
        0x08001588:    6008        .`      STR      r0,[r1,#0]
        0x0800158a:    4770        pG      BX       lr
    fmc_page_erase
        0x0800158c:    f242020c    B...    MOV      r2,#0x200c
        0x08001590:    f04f417f    O..A    MOV      r1,#0xff000000
        0x08001594:    f2c40202    ....    MOVT     r2,#0x4002
        0x08001598:    e004        ..      B        0x80015a4 ; fmc_page_erase + 24
        0x0800159a:    3110        .1      ADDS     r1,r1,#0x10
        0x0800159c:    bf02        ..      ITTT     EQ
        0x0800159e:    2103        .!      MOVEQ    r1,#3
        0x080015a0:    4608        .F      MOVEQ    r0,r1
        0x080015a2:    4770        pG      BXEQ     lr
        0x080015a4:    6813        .h      LDR      r3,[r2,#0]
        0x080015a6:    07db        ..      LSLS     r3,r3,#31
        0x080015a8:    bf1c        ..      ITT      NE
        0x080015aa:    6813        .h      LDRNE    r3,[r2,#0]
        0x080015ac:    ea5f73c3    _..s    LSLSNE   r3,r3,#31
        0x080015b0:    d030        0.      BEQ      0x8001614 ; fmc_page_erase + 136
        0x080015b2:    6813        .h      LDR      r3,[r2,#0]
        0x080015b4:    07db        ..      LSLS     r3,r3,#31
        0x080015b6:    bf1c        ..      ITT      NE
        0x080015b8:    6813        .h      LDRNE    r3,[r2,#0]
        0x080015ba:    ea5f73c3    _..s    LSLSNE   r3,r3,#31
        0x080015be:    d029        ).      BEQ      0x8001614 ; fmc_page_erase + 136
        0x080015c0:    6813        .h      LDR      r3,[r2,#0]
        0x080015c2:    07db        ..      LSLS     r3,r3,#31
        0x080015c4:    bf1c        ..      ITT      NE
        0x080015c6:    6813        .h      LDRNE    r3,[r2,#0]
        0x080015c8:    ea5f73c3    _..s    LSLSNE   r3,r3,#31
        0x080015cc:    d022        ".      BEQ      0x8001614 ; fmc_page_erase + 136
        0x080015ce:    6813        .h      LDR      r3,[r2,#0]
        0x080015d0:    07db        ..      LSLS     r3,r3,#31
        0x080015d2:    bf1c        ..      ITT      NE
        0x080015d4:    6813        .h      LDRNE    r3,[r2,#0]
        0x080015d6:    ea5f73c3    _..s    LSLSNE   r3,r3,#31
        0x080015da:    d01b        ..      BEQ      0x8001614 ; fmc_page_erase + 136
        0x080015dc:    6813        .h      LDR      r3,[r2,#0]
        0x080015de:    07db        ..      LSLS     r3,r3,#31
        0x080015e0:    bf1c        ..      ITT      NE
        0x080015e2:    6813        .h      LDRNE    r3,[r2,#0]
        0x080015e4:    ea5f73c3    _..s    LSLSNE   r3,r3,#31
        0x080015e8:    d014        ..      BEQ      0x8001614 ; fmc_page_erase + 136
        0x080015ea:    6813        .h      LDR      r3,[r2,#0]
        0x080015ec:    07db        ..      LSLS     r3,r3,#31
        0x080015ee:    bf1c        ..      ITT      NE
        0x080015f0:    6813        .h      LDRNE    r3,[r2,#0]
        0x080015f2:    ea5f73c3    _..s    LSLSNE   r3,r3,#31
        0x080015f6:    d00d        ..      BEQ      0x8001614 ; fmc_page_erase + 136
        0x080015f8:    6813        .h      LDR      r3,[r2,#0]
        0x080015fa:    07db        ..      LSLS     r3,r3,#31
        0x080015fc:    bf1c        ..      ITT      NE
        0x080015fe:    6813        .h      LDRNE    r3,[r2,#0]
        0x08001600:    ea5f73c3    _..s    LSLSNE   r3,r3,#31
        0x08001604:    d006        ..      BEQ      0x8001614 ; fmc_page_erase + 136
        0x08001606:    6813        .h      LDR      r3,[r2,#0]
        0x08001608:    07db        ..      LSLS     r3,r3,#31
        0x0800160a:    bf1c        ..      ITT      NE
        0x0800160c:    6813        .h      LDRNE    r3,[r2,#0]
        0x0800160e:    ea5f73c3    _..s    LSLSNE   r3,r3,#31
        0x08001612:    d1c2        ..      BNE      0x800159a ; fmc_page_erase + 14
        0x08001614:    6811        .h      LDR      r1,[r2,#0]
        0x08001616:    06c9        ..      LSLS     r1,r1,#27
        0x08001618:    bf42        B.      ITTT     MI
        0x0800161a:    2102        .!      MOVMI    r1,#2
        0x0800161c:    4608        .F      MOVMI    r0,r1
        0x0800161e:    4770        pG      BXMI     lr
        0x08001620:    6811        .h      LDR      r1,[r2,#0]
        0x08001622:    2304        .#      MOVS     r3,#4
        0x08001624:    ea030151    ..Q.    AND      r1,r3,r1,LSR #1
        0x08001628:    2900        .)      CMP      r1,#0
        0x0800162a:    d153        S.      BNE      0x80016d4 ; fmc_page_erase + 328
        0x0800162c:    6851        Qh      LDR      r1,[r2,#4]
        0x0800162e:    f0410102    A...    ORR      r1,r1,#2
        0x08001632:    6051        Q`      STR      r1,[r2,#4]
        0x08001634:    6090        .`      STR      r0,[r2,#8]
        0x08001636:    6850        Ph      LDR      r0,[r2,#4]
        0x08001638:    f0400040    @.@.    ORR      r0,r0,#0x40
        0x0800163c:    6050        P`      STR      r0,[r2,#4]
        0x0800163e:    f04f407f    O..@    MOV      r0,#0xff000000
        0x08001642:    6811        .h      LDR      r1,[r2,#0]
        0x08001644:    07c9        ..      LSLS     r1,r1,#31
        0x08001646:    bf1c        ..      ITT      NE
        0x08001648:    6811        .h      LDRNE    r1,[r2,#0]
        0x0800164a:    ea5f71c1    _..q    LSLSNE   r1,r1,#31
        0x0800164e:    d034        4.      BEQ      0x80016ba ; fmc_page_erase + 302
        0x08001650:    6811        .h      LDR      r1,[r2,#0]
        0x08001652:    07c9        ..      LSLS     r1,r1,#31
        0x08001654:    bf1c        ..      ITT      NE
        0x08001656:    6811        .h      LDRNE    r1,[r2,#0]
        0x08001658:    ea5f71c1    _..q    LSLSNE   r1,r1,#31
        0x0800165c:    d02d        -.      BEQ      0x80016ba ; fmc_page_erase + 302
        0x0800165e:    6811        .h      LDR      r1,[r2,#0]
        0x08001660:    07c9        ..      LSLS     r1,r1,#31
        0x08001662:    bf1c        ..      ITT      NE
        0x08001664:    6811        .h      LDRNE    r1,[r2,#0]
        0x08001666:    ea5f71c1    _..q    LSLSNE   r1,r1,#31
        0x0800166a:    d026        &.      BEQ      0x80016ba ; fmc_page_erase + 302
        0x0800166c:    6811        .h      LDR      r1,[r2,#0]
        0x0800166e:    07c9        ..      LSLS     r1,r1,#31
        0x08001670:    bf1c        ..      ITT      NE
        0x08001672:    6811        .h      LDRNE    r1,[r2,#0]
        0x08001674:    ea5f71c1    _..q    LSLSNE   r1,r1,#31
        0x08001678:    d01f        ..      BEQ      0x80016ba ; fmc_page_erase + 302
        0x0800167a:    6811        .h      LDR      r1,[r2,#0]
        0x0800167c:    07c9        ..      LSLS     r1,r1,#31
        0x0800167e:    bf1c        ..      ITT      NE
        0x08001680:    6811        .h      LDRNE    r1,[r2,#0]
        0x08001682:    ea5f71c1    _..q    LSLSNE   r1,r1,#31
        0x08001686:    d018        ..      BEQ      0x80016ba ; fmc_page_erase + 302
        0x08001688:    6811        .h      LDR      r1,[r2,#0]
        0x0800168a:    07c9        ..      LSLS     r1,r1,#31
        0x0800168c:    bf1c        ..      ITT      NE
        0x0800168e:    6811        .h      LDRNE    r1,[r2,#0]
        0x08001690:    ea5f71c1    _..q    LSLSNE   r1,r1,#31
        0x08001694:    d011        ..      BEQ      0x80016ba ; fmc_page_erase + 302
        0x08001696:    6811        .h      LDR      r1,[r2,#0]
        0x08001698:    07c9        ..      LSLS     r1,r1,#31
        0x0800169a:    bf1c        ..      ITT      NE
        0x0800169c:    6811        .h      LDRNE    r1,[r2,#0]
        0x0800169e:    ea5f71c1    _..q    LSLSNE   r1,r1,#31
        0x080016a2:    d00a        ..      BEQ      0x80016ba ; fmc_page_erase + 302
        0x080016a4:    6811        .h      LDR      r1,[r2,#0]
        0x080016a6:    07c9        ..      LSLS     r1,r1,#31
        0x080016a8:    bf1c        ..      ITT      NE
        0x080016aa:    6811        .h      LDRNE    r1,[r2,#0]
        0x080016ac:    ea5f71c1    _..q    LSLSNE   r1,r1,#31
        0x080016b0:    d003        ..      BEQ      0x80016ba ; fmc_page_erase + 302
        0x080016b2:    3010        .0      ADDS     r0,r0,#0x10
        0x080016b4:    d1c5        ..      BNE      0x8001642 ; fmc_page_erase + 182
        0x080016b6:    2103        .!      MOVS     r1,#3
        0x080016b8:    e008        ..      B        0x80016cc ; fmc_page_erase + 320
        0x080016ba:    6810        .h      LDR      r0,[r2,#0]
        0x080016bc:    06c0        ..      LSLS     r0,r0,#27
        0x080016be:    d404        ..      BMI      0x80016ca ; fmc_page_erase + 318
        0x080016c0:    6810        .h      LDR      r0,[r2,#0]
        0x080016c2:    2104        .!      MOVS     r1,#4
        0x080016c4:    ea010150    ..P.    AND      r1,r1,r0,LSR #1
        0x080016c8:    e000        ..      B        0x80016cc ; fmc_page_erase + 320
        0x080016ca:    2102        .!      MOVS     r1,#2
        0x080016cc:    6850        Ph      LDR      r0,[r2,#4]
        0x080016ce:    f0200002     ...    BIC      r0,r0,#2
        0x080016d2:    6050        P`      STR      r0,[r2,#4]
        0x080016d4:    4608        .F      MOV      r0,r1
        0x080016d6:    4770        pG      BX       lr
    fmc_unlock
        0x080016d8:    f2420004    B...    MOV      r0,#0x2004
        0x080016dc:    f2c40002    ....    MOVT     r0,#0x4002
        0x080016e0:    68c1        .h      LDR      r1,[r0,#0xc]
        0x080016e2:    0609        ..      LSLS     r1,r1,#24
        0x080016e4:    bf58        X.      IT       PL
        0x080016e6:    4770        pG      BXPL     lr
        0x080016e8:    f2401123    @.#.    MOV      r1,#0x123
        0x080016ec:    f2c45167    ..gQ    MOVT     r1,#0x4567
        0x080016f0:    6001        .`      STR      r1,[r0,#0]
        0x080016f2:    f64811ab    H...    MOV      r1,#0x89ab
        0x080016f6:    f6cc51ef    ...Q    MOVT     r1,#0xcdef
        0x080016fa:    6001        .`      STR      r1,[r0,#0]
        0x080016fc:    4770        pG      BX       lr
        0x080016fe:    0000        ..      MOVS     r0,r0
    fmc_word_program
        0x08001700:    f242030c    B...    MOV      r3,#0x200c
        0x08001704:    f04f4c7f    O..L    MOV      r12,#0xff000000
        0x08001708:    f2c40302    ....    MOVT     r3,#0x4002
        0x0800170c:    e006        ..      B        0x800171c ; fmc_word_program + 28
        0x0800170e:    f11c0c10    ....    ADDS     r12,r12,#0x10
        0x08001712:    bf02        ..      ITTT     EQ
        0x08001714:    2203        ."      MOVEQ    r2,#3
        0x08001716:    4610        .F      MOVEQ    r0,r2
        0x08001718:    4770        pG      BXEQ     lr
        0x0800171a:    bf00        ..      NOP      
        0x0800171c:    681a        .h      LDR      r2,[r3,#0]
        0x0800171e:    07d2        ..      LSLS     r2,r2,#31
        0x08001720:    bf1c        ..      ITT      NE
        0x08001722:    681a        .h      LDRNE    r2,[r3,#0]
        0x08001724:    ea5f72c2    _..r    LSLSNE   r2,r2,#31
        0x08001728:    d030        0.      BEQ      0x800178c ; fmc_word_program + 140
        0x0800172a:    681a        .h      LDR      r2,[r3,#0]
        0x0800172c:    07d2        ..      LSLS     r2,r2,#31
        0x0800172e:    bf1c        ..      ITT      NE
        0x08001730:    681a        .h      LDRNE    r2,[r3,#0]
        0x08001732:    ea5f72c2    _..r    LSLSNE   r2,r2,#31
        0x08001736:    d029        ).      BEQ      0x800178c ; fmc_word_program + 140
        0x08001738:    681a        .h      LDR      r2,[r3,#0]
        0x0800173a:    07d2        ..      LSLS     r2,r2,#31
        0x0800173c:    bf1c        ..      ITT      NE
        0x0800173e:    681a        .h      LDRNE    r2,[r3,#0]
        0x08001740:    ea5f72c2    _..r    LSLSNE   r2,r2,#31
        0x08001744:    d022        ".      BEQ      0x800178c ; fmc_word_program + 140
        0x08001746:    681a        .h      LDR      r2,[r3,#0]
        0x08001748:    07d2        ..      LSLS     r2,r2,#31
        0x0800174a:    bf1c        ..      ITT      NE
        0x0800174c:    681a        .h      LDRNE    r2,[r3,#0]
        0x0800174e:    ea5f72c2    _..r    LSLSNE   r2,r2,#31
        0x08001752:    d01b        ..      BEQ      0x800178c ; fmc_word_program + 140
        0x08001754:    681a        .h      LDR      r2,[r3,#0]
        0x08001756:    07d2        ..      LSLS     r2,r2,#31
        0x08001758:    bf1c        ..      ITT      NE
        0x0800175a:    681a        .h      LDRNE    r2,[r3,#0]
        0x0800175c:    ea5f72c2    _..r    LSLSNE   r2,r2,#31
        0x08001760:    d014        ..      BEQ      0x800178c ; fmc_word_program + 140
        0x08001762:    681a        .h      LDR      r2,[r3,#0]
        0x08001764:    07d2        ..      LSLS     r2,r2,#31
        0x08001766:    bf1c        ..      ITT      NE
        0x08001768:    681a        .h      LDRNE    r2,[r3,#0]
        0x0800176a:    ea5f72c2    _..r    LSLSNE   r2,r2,#31
        0x0800176e:    d00d        ..      BEQ      0x800178c ; fmc_word_program + 140
        0x08001770:    681a        .h      LDR      r2,[r3,#0]
        0x08001772:    07d2        ..      LSLS     r2,r2,#31
        0x08001774:    bf1c        ..      ITT      NE
        0x08001776:    681a        .h      LDRNE    r2,[r3,#0]
        0x08001778:    ea5f72c2    _..r    LSLSNE   r2,r2,#31
        0x0800177c:    d006        ..      BEQ      0x800178c ; fmc_word_program + 140
        0x0800177e:    681a        .h      LDR      r2,[r3,#0]
        0x08001780:    07d2        ..      LSLS     r2,r2,#31
        0x08001782:    bf1c        ..      ITT      NE
        0x08001784:    681a        .h      LDRNE    r2,[r3,#0]
        0x08001786:    ea5f72c2    _..r    LSLSNE   r2,r2,#31
        0x0800178a:    d1c0        ..      BNE      0x800170e ; fmc_word_program + 14
        0x0800178c:    681a        .h      LDR      r2,[r3,#0]
        0x0800178e:    06d2        ..      LSLS     r2,r2,#27
        0x08001790:    bf42        B.      ITTT     MI
        0x08001792:    2202        ."      MOVMI    r2,#2
        0x08001794:    4610        .F      MOVMI    r0,r2
        0x08001796:    4770        pG      BXMI     lr
        0x08001798:    f8d3c000    ....    LDR      r12,[r3,#0]
        0x0800179c:    2204        ."      MOVS     r2,#4
        0x0800179e:    ea02025c    ..\.    AND      r2,r2,r12,LSR #1
        0x080017a2:    2a00        .*      CMP      r2,#0
        0x080017a4:    d14f        O.      BNE      0x8001846 ; fmc_word_program + 326
        0x080017a6:    685a        Zh      LDR      r2,[r3,#4]
        0x080017a8:    f0420201    B...    ORR      r2,r2,#1
        0x080017ac:    605a        Z`      STR      r2,[r3,#4]
        0x080017ae:    6001        .`      STR      r1,[r0,#0]
        0x080017b0:    f04f407f    O..@    MOV      r0,#0xff000000
        0x080017b4:    6819        .h      LDR      r1,[r3,#0]
        0x080017b6:    07c9        ..      LSLS     r1,r1,#31
        0x080017b8:    bf1c        ..      ITT      NE
        0x080017ba:    6819        .h      LDRNE    r1,[r3,#0]
        0x080017bc:    ea5f71c1    _..q    LSLSNE   r1,r1,#31
        0x080017c0:    d034        4.      BEQ      0x800182c ; fmc_word_program + 300
        0x080017c2:    6819        .h      LDR      r1,[r3,#0]
        0x080017c4:    07c9        ..      LSLS     r1,r1,#31
        0x080017c6:    bf1c        ..      ITT      NE
        0x080017c8:    6819        .h      LDRNE    r1,[r3,#0]
        0x080017ca:    ea5f71c1    _..q    LSLSNE   r1,r1,#31
        0x080017ce:    d02d        -.      BEQ      0x800182c ; fmc_word_program + 300
        0x080017d0:    6819        .h      LDR      r1,[r3,#0]
        0x080017d2:    07c9        ..      LSLS     r1,r1,#31
        0x080017d4:    bf1c        ..      ITT      NE
        0x080017d6:    6819        .h      LDRNE    r1,[r3,#0]
        0x080017d8:    ea5f71c1    _..q    LSLSNE   r1,r1,#31
        0x080017dc:    d026        &.      BEQ      0x800182c ; fmc_word_program + 300
        0x080017de:    6819        .h      LDR      r1,[r3,#0]
        0x080017e0:    07c9        ..      LSLS     r1,r1,#31
        0x080017e2:    bf1c        ..      ITT      NE
        0x080017e4:    6819        .h      LDRNE    r1,[r3,#0]
        0x080017e6:    ea5f71c1    _..q    LSLSNE   r1,r1,#31
        0x080017ea:    d01f        ..      BEQ      0x800182c ; fmc_word_program + 300
        0x080017ec:    6819        .h      LDR      r1,[r3,#0]
        0x080017ee:    07c9        ..      LSLS     r1,r1,#31
        0x080017f0:    bf1c        ..      ITT      NE
        0x080017f2:    6819        .h      LDRNE    r1,[r3,#0]
        0x080017f4:    ea5f71c1    _..q    LSLSNE   r1,r1,#31
        0x080017f8:    d018        ..      BEQ      0x800182c ; fmc_word_program + 300
        0x080017fa:    6819        .h      LDR      r1,[r3,#0]
        0x080017fc:    07c9        ..      LSLS     r1,r1,#31
        0x080017fe:    bf1c        ..      ITT      NE
        0x08001800:    6819        .h      LDRNE    r1,[r3,#0]
        0x08001802:    ea5f71c1    _..q    LSLSNE   r1,r1,#31
        0x08001806:    d011        ..      BEQ      0x800182c ; fmc_word_program + 300
        0x08001808:    6819        .h      LDR      r1,[r3,#0]
        0x0800180a:    07c9        ..      LSLS     r1,r1,#31
        0x0800180c:    bf1c        ..      ITT      NE
        0x0800180e:    6819        .h      LDRNE    r1,[r3,#0]
        0x08001810:    ea5f71c1    _..q    LSLSNE   r1,r1,#31
        0x08001814:    d00a        ..      BEQ      0x800182c ; fmc_word_program + 300
        0x08001816:    6819        .h      LDR      r1,[r3,#0]
        0x08001818:    07c9        ..      LSLS     r1,r1,#31
        0x0800181a:    bf1c        ..      ITT      NE
        0x0800181c:    6819        .h      LDRNE    r1,[r3,#0]
        0x0800181e:    ea5f71c1    _..q    LSLSNE   r1,r1,#31
        0x08001822:    d003        ..      BEQ      0x800182c ; fmc_word_program + 300
        0x08001824:    3010        .0      ADDS     r0,r0,#0x10
        0x08001826:    d1c5        ..      BNE      0x80017b4 ; fmc_word_program + 180
        0x08001828:    2203        ."      MOVS     r2,#3
        0x0800182a:    e008        ..      B        0x800183e ; fmc_word_program + 318
        0x0800182c:    6818        .h      LDR      r0,[r3,#0]
        0x0800182e:    06c0        ..      LSLS     r0,r0,#27
        0x08001830:    d404        ..      BMI      0x800183c ; fmc_word_program + 316
        0x08001832:    6818        .h      LDR      r0,[r3,#0]
        0x08001834:    2104        .!      MOVS     r1,#4
        0x08001836:    ea010250    ..P.    AND      r2,r1,r0,LSR #1
        0x0800183a:    e000        ..      B        0x800183e ; fmc_word_program + 318
        0x0800183c:    2202        ."      MOVS     r2,#2
        0x0800183e:    6858        Xh      LDR      r0,[r3,#4]
        0x08001840:    f0200001     ...    BIC      r0,r0,#1
        0x08001844:    6058        X`      STR      r0,[r3,#4]
        0x08001846:    4610        .F      MOV      r0,r2
        0x08001848:    4770        pG      BX       lr
        0x0800184a:    0000        ..      MOVS     r0,r0
    gpio_af_set
        0x0800184c:    b510        ..      PUSH     {r4,lr}
        0x0800184e:    f8d0c020    .. .    LDR      r12,[r0,#0x20]
        0x08001852:    f8d0e024    ..$.    LDR      lr,[r0,#0x24]
        0x08001856:    f02c030f    ,...    BIC      r3,r12,#0xf
        0x0800185a:    07d4        ..      LSLS     r4,r2,#31
        0x0800185c:    bf18        ..      IT       NE
        0x0800185e:    ea430c01    C...    ORRNE    r12,r3,r1
        0x08001862:    0793        ..      LSLS     r3,r2,#30
        0x08001864:    bf44        D.      ITT      MI
        0x08001866:    f02c03f0    ,...    BICMI    r3,r12,#0xf0
        0x0800186a:    ea431c01    C...    ORRMI    r12,r3,r1,LSL #4
        0x0800186e:    0753        S.      LSLS     r3,r2,#29
        0x08001870:    bf44        D.      ITT      MI
        0x08001872:    f42c6370    ,.pc    BICMI    r3,r12,#0xf00
        0x08001876:    ea432c01    C..,    ORRMI    r12,r3,r1,LSL #8
        0x0800187a:    0713        ..      LSLS     r3,r2,#28
        0x0800187c:    bf44        D.      ITT      MI
        0x0800187e:    f42c4370    ,.pC    BICMI    r3,r12,#0xf000
        0x08001882:    ea433c01    C..<    ORRMI    r12,r3,r1,LSL #12
        0x08001886:    06d3        ..      LSLS     r3,r2,#27
        0x08001888:    bf44        D.      ITT      MI
        0x0800188a:    f42c2370    ,.p#    BICMI    r3,r12,#0xf0000
        0x0800188e:    ea434c01    C..L    ORRMI    r12,r3,r1,LSL #16
        0x08001892:    0693        ..      LSLS     r3,r2,#26
        0x08001894:    bf44        D.      ITT      MI
        0x08001896:    f42c0370    ,.p.    BICMI    r3,r12,#0xf00000
        0x0800189a:    ea435c01    C..\    ORRMI    r12,r3,r1,LSL #20
        0x0800189e:    0653        S.      LSLS     r3,r2,#25
        0x080018a0:    bf44        D.      ITT      MI
        0x080018a2:    f02c6370    ,.pc    BICMI    r3,r12,#0xf000000
        0x080018a6:    ea436c01    C..l    ORRMI    r12,r3,r1,LSL #24
        0x080018aa:    0613        ..      LSLS     r3,r2,#24
        0x080018ac:    bf44        D.      ITT      MI
        0x080018ae:    f02c4370    ,.pC    BICMI    r3,r12,#0xf0000000
        0x080018b2:    ea437c01    C..|    ORRMI    r12,r3,r1,LSL #28
        0x080018b6:    f02e030f    ....    BIC      r3,lr,#0xf
        0x080018ba:    05d4        ..      LSLS     r4,r2,#23
        0x080018bc:    bf48        H.      IT       MI
        0x080018be:    ea430e01    C...    ORRMI    lr,r3,r1
        0x080018c2:    0593        ..      LSLS     r3,r2,#22
        0x080018c4:    bf44        D.      ITT      MI
        0x080018c6:    f02e03f0    ....    BICMI    r3,lr,#0xf0
        0x080018ca:    ea431e01    C...    ORRMI    lr,r3,r1,LSL #4
        0x080018ce:    0553        S.      LSLS     r3,r2,#21
        0x080018d0:    bf44        D.      ITT      MI
        0x080018d2:    f42e6370    ..pc    BICMI    r3,lr,#0xf00
        0x080018d6:    ea432e01    C...    ORRMI    lr,r3,r1,LSL #8
        0x080018da:    0513        ..      LSLS     r3,r2,#20
        0x080018dc:    bf44        D.      ITT      MI
        0x080018de:    f42e4370    ..pC    BICMI    r3,lr,#0xf000
        0x080018e2:    ea433e01    C..>    ORRMI    lr,r3,r1,LSL #12
        0x080018e6:    04d3        ..      LSLS     r3,r2,#19
        0x080018e8:    bf44        D.      ITT      MI
        0x080018ea:    f42e2370    ..p#    BICMI    r3,lr,#0xf0000
        0x080018ee:    ea434e01    C..N    ORRMI    lr,r3,r1,LSL #16
        0x080018f2:    0493        ..      LSLS     r3,r2,#18
        0x080018f4:    bf44        D.      ITT      MI
        0x080018f6:    f42e0370    ..p.    BICMI    r3,lr,#0xf00000
        0x080018fa:    ea435e01    C..^    ORRMI    lr,r3,r1,LSL #20
        0x080018fe:    0453        S.      LSLS     r3,r2,#17
        0x08001900:    bf44        D.      ITT      MI
        0x08001902:    f02e6370    ..pc    BICMI    r3,lr,#0xf000000
        0x08001906:    ea436e01    C..n    ORRMI    lr,r3,r1,LSL #24
        0x0800190a:    0412        ..      LSLS     r2,r2,#16
        0x0800190c:    bf44        D.      ITT      MI
        0x0800190e:    f02e4270    ..pB    BICMI    r2,lr,#0xf0000000
        0x08001912:    ea427e01    B..~    ORRMI    lr,r2,r1,LSL #28
        0x08001916:    f8c0c020    .. .    STR      r12,[r0,#0x20]
        0x0800191a:    f8c0e024    ..$.    STR      lr,[r0,#0x24]
        0x0800191e:    bd10        ..      POP      {r4,pc}
    gpio_mode_set
        0x08001920:    e92d47f0    -..G    PUSH     {r4-r10,lr}
        0x08001924:    6806        .h      LDR      r6,[r0,#0]
        0x08001926:    f8d0900c    ....    LDR      r9,[r0,#0xc]
        0x0800192a:    2700        .'      MOVS     r7,#0
        0x0800192c:    f04f0c0e    O...    MOV      r12,#0xe
        0x08001930:    f04f0e01    O...    MOV      lr,#1
        0x08001934:    f04f0803    O...    MOV      r8,#3
        0x08001938:    fa0ef407    ....    LSL      r4,lr,r7
        0x0800193c:    421c        .B      TST      r4,r3
        0x0800193e:    d00f        ..      BEQ      0x8001960 ; gpio_mode_set + 64
        0x08001940:    f1ac040e    ....    SUB      r4,r12,#0xe
        0x08001944:    fa08f504    ....    LSL      r5,r8,r4
        0x08001948:    ea260a05    &...    BIC      r10,r6,r5
        0x0800194c:    fa01f604    ....    LSL      r6,r1,r4
        0x08001950:    ea290505    )...    BIC      r5,r9,r5
        0x08001954:    fa02f404    ....    LSL      r4,r2,r4
        0x08001958:    ea46060a    F...    ORR      r6,r6,r10
        0x0800195c:    ea450904    E...    ORR      r9,r5,r4
        0x08001960:    3701        .7      ADDS     r7,#1
        0x08001962:    fa0ef407    ....    LSL      r4,lr,r7
        0x08001966:    421c        .B      TST      r4,r3
        0x08001968:    d00f        ..      BEQ      0x800198a ; gpio_mode_set + 106
        0x0800196a:    f1ac040c    ....    SUB      r4,r12,#0xc
        0x0800196e:    fa08f504    ....    LSL      r5,r8,r4
        0x08001972:    ea260a05    &...    BIC      r10,r6,r5
        0x08001976:    fa01f604    ....    LSL      r6,r1,r4
        0x0800197a:    ea290505    )...    BIC      r5,r9,r5
        0x0800197e:    fa02f404    ....    LSL      r4,r2,r4
        0x08001982:    ea46060a    F...    ORR      r6,r6,r10
        0x08001986:    ea450904    E...    ORR      r9,r5,r4
        0x0800198a:    3701        .7      ADDS     r7,#1
        0x0800198c:    fa0ef407    ....    LSL      r4,lr,r7
        0x08001990:    421c        .B      TST      r4,r3
        0x08001992:    d00f        ..      BEQ      0x80019b4 ; gpio_mode_set + 148
        0x08001994:    f1ac040a    ....    SUB      r4,r12,#0xa
        0x08001998:    fa08f504    ....    LSL      r5,r8,r4
        0x0800199c:    ea260a05    &...    BIC      r10,r6,r5
        0x080019a0:    fa01f604    ....    LSL      r6,r1,r4
        0x080019a4:    ea290505    )...    BIC      r5,r9,r5
        0x080019a8:    fa02f404    ....    LSL      r4,r2,r4
        0x080019ac:    ea46060a    F...    ORR      r6,r6,r10
        0x080019b0:    ea450904    E...    ORR      r9,r5,r4
        0x080019b4:    3701        .7      ADDS     r7,#1
        0x080019b6:    fa0ef407    ....    LSL      r4,lr,r7
        0x080019ba:    421c        .B      TST      r4,r3
        0x080019bc:    d00f        ..      BEQ      0x80019de ; gpio_mode_set + 190
        0x080019be:    f1ac0408    ....    SUB      r4,r12,#8
        0x080019c2:    fa08f504    ....    LSL      r5,r8,r4
        0x080019c6:    ea260a05    &...    BIC      r10,r6,r5
        0x080019ca:    fa01f604    ....    LSL      r6,r1,r4
        0x080019ce:    ea290505    )...    BIC      r5,r9,r5
        0x080019d2:    fa02f404    ....    LSL      r4,r2,r4
        0x080019d6:    ea46060a    F...    ORR      r6,r6,r10
        0x080019da:    ea450904    E...    ORR      r9,r5,r4
        0x080019de:    3701        .7      ADDS     r7,#1
        0x080019e0:    fa0ef407    ....    LSL      r4,lr,r7
        0x080019e4:    421c        .B      TST      r4,r3
        0x080019e6:    d00f        ..      BEQ      0x8001a08 ; gpio_mode_set + 232
        0x080019e8:    f1ac0406    ....    SUB      r4,r12,#6
        0x080019ec:    fa08f504    ....    LSL      r5,r8,r4
        0x080019f0:    ea260a05    &...    BIC      r10,r6,r5
        0x080019f4:    fa01f604    ....    LSL      r6,r1,r4
        0x080019f8:    ea290505    )...    BIC      r5,r9,r5
        0x080019fc:    fa02f404    ....    LSL      r4,r2,r4
        0x08001a00:    ea46060a    F...    ORR      r6,r6,r10
        0x08001a04:    ea450904    E...    ORR      r9,r5,r4
        0x08001a08:    3701        .7      ADDS     r7,#1
        0x08001a0a:    fa0ef407    ....    LSL      r4,lr,r7
        0x08001a0e:    421c        .B      TST      r4,r3
        0x08001a10:    d00f        ..      BEQ      0x8001a32 ; gpio_mode_set + 274
        0x08001a12:    f1ac0404    ....    SUB      r4,r12,#4
        0x08001a16:    fa08f504    ....    LSL      r5,r8,r4
        0x08001a1a:    ea260a05    &...    BIC      r10,r6,r5
        0x08001a1e:    fa01f604    ....    LSL      r6,r1,r4
        0x08001a22:    ea290505    )...    BIC      r5,r9,r5
        0x08001a26:    fa02f404    ....    LSL      r4,r2,r4
        0x08001a2a:    ea46060a    F...    ORR      r6,r6,r10
        0x08001a2e:    ea450904    E...    ORR      r9,r5,r4
        0x08001a32:    3701        .7      ADDS     r7,#1
        0x08001a34:    fa0ef407    ....    LSL      r4,lr,r7
        0x08001a38:    421c        .B      TST      r4,r3
        0x08001a3a:    d00f        ..      BEQ      0x8001a5c ; gpio_mode_set + 316
        0x08001a3c:    f1ac0402    ....    SUB      r4,r12,#2
        0x08001a40:    fa08f504    ....    LSL      r5,r8,r4
        0x08001a44:    ea260a05    &...    BIC      r10,r6,r5
        0x08001a48:    fa01f604    ....    LSL      r6,r1,r4
        0x08001a4c:    ea290505    )...    BIC      r5,r9,r5
        0x08001a50:    fa02f404    ....    LSL      r4,r2,r4
        0x08001a54:    ea46060a    F...    ORR      r6,r6,r10
        0x08001a58:    ea450904    E...    ORR      r9,r5,r4
        0x08001a5c:    3701        .7      ADDS     r7,#1
        0x08001a5e:    fa0ef407    ....    LSL      r4,lr,r7
        0x08001a62:    421c        .B      TST      r4,r3
        0x08001a64:    d00c        ..      BEQ      0x8001a80 ; gpio_mode_set + 352
        0x08001a66:    fa08f40c    ....    LSL      r4,r8,r12
        0x08001a6a:    ea260504    &...    BIC      r5,r6,r4
        0x08001a6e:    fa01f60c    ....    LSL      r6,r1,r12
        0x08001a72:    432e        .C      ORRS     r6,r6,r5
        0x08001a74:    ea290404    )...    BIC      r4,r9,r4
        0x08001a78:    fa02f50c    ....    LSL      r5,r2,r12
        0x08001a7c:    ea440905    D...    ORR      r9,r4,r5
        0x08001a80:    3701        .7      ADDS     r7,#1
        0x08001a82:    2f10        ./      CMP      r7,#0x10
        0x08001a84:    f10c0c10    ....    ADD      r12,r12,#0x10
        0x08001a88:    f47faf56    ..V.    BNE      0x8001938 ; gpio_mode_set + 24
        0x08001a8c:    6006        .`      STR      r6,[r0,#0]
        0x08001a8e:    f8c0900c    ....    STR      r9,[r0,#0xc]
        0x08001a92:    e8bd87f0    ....    POP      {r4-r10,pc}
        0x08001a96:    0000        ..      MOVS     r0,r0
    gpio_output_options_set
        0x08001a98:    2901        .)      CMP      r1,#1
        0x08001a9a:    6841        Ah      LDR      r1,[r0,#4]
        0x08001a9c:    bf14        ..      ITE      NE
        0x08001a9e:    4399        .C      BICNE    r1,r1,r3
        0x08001aa0:    4319        .C      ORREQ    r1,r1,r3
        0x08001aa2:    6041        A`      STR      r1,[r0,#4]
        0x08001aa4:    b5f0        ..      PUSH     {r4-r7,lr}
        0x08001aa6:    6884        .h      LDR      r4,[r0,#8]
        0x08001aa8:    2500        .%      MOVS     r5,#0
        0x08001aaa:    210e        .!      MOVS     r1,#0xe
        0x08001aac:    f04f0c01    O...    MOV      r12,#1
        0x08001ab0:    f04f0e03    O...    MOV      lr,#3
        0x08001ab4:    fa0cf605    ....    LSL      r6,r12,r5
        0x08001ab8:    421e        .B      TST      r6,r3
        0x08001aba:    d007        ..      BEQ      0x8001acc ; gpio_output_options_set + 52
        0x08001abc:    f1a1060e    ....    SUB      r6,r1,#0xe
        0x08001ac0:    fa0ef706    ....    LSL      r7,lr,r6
        0x08001ac4:    43bc        .C      BICS     r4,r4,r7
        0x08001ac6:    fa02f606    ....    LSL      r6,r2,r6
        0x08001aca:    4334        4C      ORRS     r4,r4,r6
        0x08001acc:    3501        .5      ADDS     r5,#1
        0x08001ace:    fa0cf605    ....    LSL      r6,r12,r5
        0x08001ad2:    421e        .B      TST      r6,r3
        0x08001ad4:    d007        ..      BEQ      0x8001ae6 ; gpio_output_options_set + 78
        0x08001ad6:    f1a1060c    ....    SUB      r6,r1,#0xc
        0x08001ada:    fa0ef706    ....    LSL      r7,lr,r6
        0x08001ade:    43bc        .C      BICS     r4,r4,r7
        0x08001ae0:    fa02f606    ....    LSL      r6,r2,r6
        0x08001ae4:    4334        4C      ORRS     r4,r4,r6
        0x08001ae6:    3501        .5      ADDS     r5,#1
        0x08001ae8:    fa0cf605    ....    LSL      r6,r12,r5
        0x08001aec:    421e        .B      TST      r6,r3
        0x08001aee:    d007        ..      BEQ      0x8001b00 ; gpio_output_options_set + 104
        0x08001af0:    f1a1060a    ....    SUB      r6,r1,#0xa
        0x08001af4:    fa0ef706    ....    LSL      r7,lr,r6
        0x08001af8:    43bc        .C      BICS     r4,r4,r7
        0x08001afa:    fa02f606    ....    LSL      r6,r2,r6
        0x08001afe:    4334        4C      ORRS     r4,r4,r6
        0x08001b00:    3501        .5      ADDS     r5,#1
        0x08001b02:    fa0cf605    ....    LSL      r6,r12,r5
        0x08001b06:    421e        .B      TST      r6,r3
        0x08001b08:    d007        ..      BEQ      0x8001b1a ; gpio_output_options_set + 130
        0x08001b0a:    f1a10608    ....    SUB      r6,r1,#8
        0x08001b0e:    fa0ef706    ....    LSL      r7,lr,r6
        0x08001b12:    43bc        .C      BICS     r4,r4,r7
        0x08001b14:    fa02f606    ....    LSL      r6,r2,r6
        0x08001b18:    4334        4C      ORRS     r4,r4,r6
        0x08001b1a:    3501        .5      ADDS     r5,#1
        0x08001b1c:    fa0cf605    ....    LSL      r6,r12,r5
        0x08001b20:    421e        .B      TST      r6,r3
        0x08001b22:    d006        ..      BEQ      0x8001b32 ; gpio_output_options_set + 154
        0x08001b24:    1f8e        ..      SUBS     r6,r1,#6
        0x08001b26:    fa0ef706    ....    LSL      r7,lr,r6
        0x08001b2a:    43bc        .C      BICS     r4,r4,r7
        0x08001b2c:    fa02f606    ....    LSL      r6,r2,r6
        0x08001b30:    4334        4C      ORRS     r4,r4,r6
        0x08001b32:    3501        .5      ADDS     r5,#1
        0x08001b34:    fa0cf605    ....    LSL      r6,r12,r5
        0x08001b38:    421e        .B      TST      r6,r3
        0x08001b3a:    d006        ..      BEQ      0x8001b4a ; gpio_output_options_set + 178
        0x08001b3c:    1f0e        ..      SUBS     r6,r1,#4
        0x08001b3e:    fa0ef706    ....    LSL      r7,lr,r6
        0x08001b42:    43bc        .C      BICS     r4,r4,r7
        0x08001b44:    fa02f606    ....    LSL      r6,r2,r6
        0x08001b48:    4334        4C      ORRS     r4,r4,r6
        0x08001b4a:    3501        .5      ADDS     r5,#1
        0x08001b4c:    fa0cf605    ....    LSL      r6,r12,r5
        0x08001b50:    421e        .B      TST      r6,r3
        0x08001b52:    d006        ..      BEQ      0x8001b62 ; gpio_output_options_set + 202
        0x08001b54:    1e8e        ..      SUBS     r6,r1,#2
        0x08001b56:    fa0ef706    ....    LSL      r7,lr,r6
        0x08001b5a:    43bc        .C      BICS     r4,r4,r7
        0x08001b5c:    fa02f606    ....    LSL      r6,r2,r6
        0x08001b60:    4334        4C      ORRS     r4,r4,r6
        0x08001b62:    3501        .5      ADDS     r5,#1
        0x08001b64:    fa0cf605    ....    LSL      r6,r12,r5
        0x08001b68:    421e        .B      TST      r6,r3
        0x08001b6a:    bf1f        ..      ITTTT    NE
        0x08001b6c:    fa0ef601    ....    LSLNE    r6,lr,r1
        0x08001b70:    43b4        .C      BICNE    r4,r4,r6
        0x08001b72:    fa02f601    ....    LSLNE    r6,r2,r1
        0x08001b76:    4334        4C      ORRNE    r4,r4,r6
        0x08001b78:    3501        .5      ADDS     r5,#1
        0x08001b7a:    2d10        .-      CMP      r5,#0x10
        0x08001b7c:    f1010110    ....    ADD      r1,r1,#0x10
        0x08001b80:    d198        ..      BNE      0x8001ab4 ; gpio_output_options_set + 28
        0x08001b82:    6084        .`      STR      r4,[r0,#8]
        0x08001b84:    bdf0        ..      POP      {r4-r7,pc}
        0x08001b86:    0000        ..      MOVS     r0,r0
    icache_disable
        0x08001b88:    b081        ..      SUB      sp,sp,#4
        0x08001b8a:    2000        .       MOVS     r0,#0
        0x08001b8c:    f2c40008    ....    MOVT     r0,#0x4008
        0x08001b90:    6801        .h      LDR      r1,[r0,#0]
        0x08001b92:    07c9        ..      LSLS     r1,r1,#31
        0x08001b94:    d105        ..      BNE      0x8001ba2 ; icache_disable + 26
        0x08001b96:    6a01        .j      LDR      r1,[r0,#0x20]
        0x08001b98:    9100        ..      STR      r1,[sp,#0]
        0x08001b9a:    9900        ..      LDR      r1,[sp,#0]
        0x08001b9c:    f4214100    !..A    BIC      r1,r1,#0x8000
        0x08001ba0:    9100        ..      STR      r1,[sp,#0]
        0x08001ba2:    6801        .h      LDR      r1,[r0,#0]
        0x08001ba4:    07c9        ..      LSLS     r1,r1,#31
        0x08001ba6:    d105        ..      BNE      0x8001bb4 ; icache_disable + 44
        0x08001ba8:    6a41        Aj      LDR      r1,[r0,#0x24]
        0x08001baa:    9100        ..      STR      r1,[sp,#0]
        0x08001bac:    9900        ..      LDR      r1,[sp,#0]
        0x08001bae:    f4214100    !..A    BIC      r1,r1,#0x8000
        0x08001bb2:    9100        ..      STR      r1,[sp,#0]
        0x08001bb4:    6801        .h      LDR      r1,[r0,#0]
        0x08001bb6:    07c9        ..      LSLS     r1,r1,#31
        0x08001bb8:    d105        ..      BNE      0x8001bc6 ; icache_disable + 62
        0x08001bba:    6a81        .j      LDR      r1,[r0,#0x28]
        0x08001bbc:    9100        ..      STR      r1,[sp,#0]
        0x08001bbe:    9900        ..      LDR      r1,[sp,#0]
        0x08001bc0:    f4214100    !..A    BIC      r1,r1,#0x8000
        0x08001bc4:    9100        ..      STR      r1,[sp,#0]
        0x08001bc6:    6801        .h      LDR      r1,[r0,#0]
        0x08001bc8:    07c9        ..      LSLS     r1,r1,#31
        0x08001bca:    d105        ..      BNE      0x8001bd8 ; icache_disable + 80
        0x08001bcc:    6ac1        .j      LDR      r1,[r0,#0x2c]
        0x08001bce:    9100        ..      STR      r1,[sp,#0]
        0x08001bd0:    9900        ..      LDR      r1,[sp,#0]
        0x08001bd2:    f4214100    !..A    BIC      r1,r1,#0x8000
        0x08001bd6:    9100        ..      STR      r1,[sp,#0]
        0x08001bd8:    6801        .h      LDR      r1,[r0,#0]
        0x08001bda:    f4412140    A.@!    ORR      r1,r1,#0xc0000
        0x08001bde:    6001        .`      STR      r1,[r0,#0]
        0x08001be0:    6801        .h      LDR      r1,[r0,#0]
        0x08001be2:    f4212140    !.@!    BIC      r1,r1,#0xc0000
        0x08001be6:    6001        .`      STR      r1,[r0,#0]
        0x08001be8:    6801        .h      LDR      r1,[r0,#0]
        0x08001bea:    f4213140    !.@1    BIC      r1,r1,#0x30000
        0x08001bee:    6001        .`      STR      r1,[r0,#0]
        0x08001bf0:    6801        .h      LDR      r1,[r0,#0]
        0x08001bf2:    f0010104    ....    AND      r1,r1,#4
        0x08001bf6:    6001        .`      STR      r1,[r0,#0]
        0x08001bf8:    b001        ..      ADD      sp,sp,#4
        0x08001bfa:    4770        pG      BX       lr
    icache_enable
        0x08001bfc:    2000        .       MOVS     r0,#0
        0x08001bfe:    f2c40008    ....    MOVT     r0,#0x4008
        0x08001c02:    6801        .h      LDR      r1,[r0,#0]
        0x08001c04:    07c9        ..      LSLS     r1,r1,#31
        0x08001c06:    bf18        ..      IT       NE
        0x08001c08:    4770        pG      BXNE     lr
        0x08001c0a:    6801        .h      LDR      r1,[r0,#0]
        0x08001c0c:    f0410101    A...    ORR      r1,r1,#1
        0x08001c10:    6001        .`      STR      r1,[r0,#0]
        0x08001c12:    4770        pG      BX       lr
    is_valid_flash_addr
        0x08001c14:    f1b06f00    ...o    CMP      r0,#0x8000000
        0x08001c18:    bf3c        <.      ITT      CC
        0x08001c1a:    2000        .       MOVCC    r0,#0
        0x08001c1c:    4770        pG      BXCC     lr
        0x08001c1e:    f242011c    B...    MOV      r1,#0x201c
        0x08001c22:    f2c40102    ....    MOVT     r1,#0x4002
        0x08001c26:    6809        .h      LDR      r1,[r1,#0]
        0x08001c28:    f04f6202    O..b    MOV      r2,#0x8200000
        0x08001c2c:    06c9        ..      LSLS     r1,r1,#27
        0x08001c2e:    bf58        X.      IT       PL
        0x08001c30:    f04f6220    O. b    MOVPL    r2,#0xa000000
        0x08001c34:    2100        .!      MOVS     r1,#0
        0x08001c36:    4282        .B      CMP      r2,r0
        0x08001c38:    bf88        ..      IT       HI
        0x08001c3a:    2101        .!      MOVHI    r1,#1
        0x08001c3c:    4608        .F      MOV      r0,r1
        0x08001c3e:    4770        pG      BX       lr
    log_uart_idle_wait
        0x08001c40:    b510        ..      PUSH     {r4,lr}
        0x08001c42:    f2410400    A...    MOVW     r4,#0x1000
        0x08001c46:    f2c40401    ....    MOVT     r4,#0x4001
        0x08001c4a:    bf00        ..      NOP      
        0x08001c4c:    4620         F      MOV      r0,r4
        0x08001c4e:    f2407106    @..q    MOV      r1,#0x706
        0x08001c52:    f001fb1d    ....    BL       usart_flag_get ; 0x8003290
        0x08001c56:    2800        .(      CMP      r0,#0
        0x08001c58:    d0f8        ..      BEQ      0x8001c4c ; log_uart_idle_wait + 12
        0x08001c5a:    bd10        ..      POP      {r4,pc}
    log_uart_init
        0x08001c5c:    f2410000    A...    MOVW     r0,#0x1000
        0x08001c60:    f2c40001    ....    MOVT     r0,#0x4001
        0x08001c64:    f001b9fe    ....    B.W      uart_config ; 0x8003064
    main
        0x08001c68:    b084        ..      SUB      sp,sp,#0x10
        0x08001c6a:    f64131a0    A..1    MOVW     r1,#0x1ba0
        0x08001c6e:    2000        .       MOVS     r0,#0
        0x08001c70:    f2c20100    ....    MOVT     r1,#0x2000
        0x08001c74:    9003        ..      STR      r0,[sp,#0xc]
        0x08001c76:    9002        ..      STR      r0,[sp,#8]
        0x08001c78:    f381880a    ....    MSR      10,r1 ; ?  
        0x08001c7c:    f04f5000    O..P    MOV      r0,#0x20000000
        0x08001c80:    f44f7100    O..q    MOV      r1,#0x200
        0x08001c84:    f7fefadf    ....    BL       __aeabi_memclr ; 0x8000246
        0x08001c88:    f7ffffe8    ....    BL       log_uart_init ; 0x8001c5c
        0x08001c8c:    a033        3.      ADR      r0,{pc}+0xd0 ; 0x8001d5c
        0x08001c8e:    f7fefcbf    ....    BL       co_printf ; 0x8000610
        0x08001c92:    f7fff8cb    ....    BL       flash_init ; 0x8000e2c
        0x08001c96:    f000fb7b    ..{.    BL       sys_status_check ; 0x8002390
        0x08001c9a:    f1b03fff    ...?    CMP      r0,#0xffffffff
        0x08001c9e:    dd3f        ?.      BLE      0x8001d20 ; main + 184
        0x08001ca0:    a803        ..      ADD      r0,sp,#0xc
        0x08001ca2:    a902        ..      ADD      r1,sp,#8
        0x08001ca4:    f7fefbf8    ....    BL       boot_image_find ; 0x8000498
        0x08001ca8:    f6403494    @..4    MOV      r4,#0xb94
        0x08001cac:    f2c20400    ....    MOVT     r4,#0x2000
        0x08001cb0:    4601        .F      MOV      r1,r0
        0x08001cb2:    6820         h      LDR      r0,[r4,#0]
        0x08001cb4:    f1b13fff    ...?    CMP      r1,#0xffffffff
        0x08001cb8:    dd41        A.      BLE      0x8001d3e ; main + 214
        0x08001cba:    2801        .(      CMP      r0,#1
        0x08001cbc:    db03        ..      BLT      0x8001cc6 ; main + 94
        0x08001cbe:    9903        ..      LDR      r1,[sp,#0xc]
        0x08001cc0:    a02a        *.      ADR      r0,{pc}+0xac ; 0x8001d6c
        0x08001cc2:    f7fefca5    ....    BL       co_printf ; 0x8000610
        0x08001cc6:    9803        ..      LDR      r0,[sp,#0xc]
        0x08001cc8:    2801        .(      CMP      r0,#1
        0x08001cca:    d102        ..      BNE      0x8001cd2 ; main + 106
        0x08001ccc:    f7fff8dc    ....    BL       flash_offset_mapping ; 0x8000e88
        0x08001cd0:    9803        ..      LDR      r0,[sp,#0xc]
        0x08001cd2:    b2c0        ..      UXTB     r0,r0
        0x08001cd4:    2106        .!      MOVS     r1,#6
        0x08001cd6:    2202        ."      MOVS     r2,#2
        0x08001cd8:    f000fa94    ....    BL       sys_img_flag_set ; 0x8002204
        0x08001cdc:    f89d000c    ....    LDRB     r0,[sp,#0xc]
        0x08001ce0:    f000fad6    ....    BL       sys_running_img_set ; 0x8002290
        0x08001ce4:    9802        ..      LDR      r0,[sp,#8]
        0x08001ce6:    4669        iF      MOV      r1,sp
        0x08001ce8:    2208        ."      MOVS     r2,#8
        0x08001cea:    f7fff8df    ....    BL       flash_read ; 0x8000eac
        0x08001cee:    9801        ..      LDR      r0,[sp,#4]
        0x08001cf0:    f7ffff90    ....    BL       is_valid_flash_addr ; 0x8001c14
        0x08001cf4:    b348        H.      CBZ      r0,0x8001d4a ; main + 226
        0x08001cf6:    f7ffffa3    ....    BL       log_uart_idle_wait ; 0x8001c40
        0x08001cfa:    e9dd0100    ....    LDRD     r0,r1,[sp,#0]
        0x08001cfe:    f6403298    @..2    MOV      r2,#0xb98
        0x08001d02:    f2c20200    ....    MOVT     r2,#0x2000
        0x08001d06:    2300        .#      MOVS     r3,#0
        0x08001d08:    6011        .`      STR      r1,[r2,#0]
        0x08001d0a:    f383880a    ....    MSR      10,r3 ; ?  
        0x08001d0e:    f3808808    ....    MSR      MSP,r0
        0x08001d12:    f3bf8f4f    ..O.    DSB      
        0x08001d16:    f3bf8f6f    ..o.    ISB      
        0x08001d1a:    6810        .h      LDR      r0,[r2,#0]
        0x08001d1c:    4780        .G      BLX      r0
        0x08001d1e:    e01b        ..      B        0x8001d58 ; main + 240
        0x08001d20:    4601        .F      MOV      r1,r0
        0x08001d22:    f6403094    @..0    MOV      r0,#0xb94
        0x08001d26:    f2c20000    ....    MOVT     r0,#0x2000
        0x08001d2a:    6800        .h      LDR      r0,[r0,#0]
        0x08001d2c:    2802        .(      CMP      r0,#2
        0x08001d2e:    db13        ..      BLT      0x8001d58 ; main + 240
        0x08001d30:    f243306a    C.j0    MOV      r0,#0x336a
        0x08001d34:    f6c00000    ....    MOVT     r0,#0x800
        0x08001d38:    f7fefc6a    ..j.    BL       co_printf ; 0x8000610
        0x08001d3c:    e00c        ..      B        0x8001d58 ; main + 240
        0x08001d3e:    2802        .(      CMP      r0,#2
        0x08001d40:    db0a        ..      BLT      0x8001d58 ; main + 240
        0x08001d42:    a01d        ..      ADR      r0,{pc}+0x76 ; 0x8001db8
        0x08001d44:    f7fefc64    ..d.    BL       co_printf ; 0x8000610
        0x08001d48:    e006        ..      B        0x8001d58 ; main + 240
        0x08001d4a:    6820         h      LDR      r0,[r4,#0]
        0x08001d4c:    2802        .(      CMP      r0,#2
        0x08001d4e:    db03        ..      BLT      0x8001d58 ; main + 240
        0x08001d50:    9901        ..      LDR      r1,[sp,#4]
        0x08001d52:    a00d        ..      ADR      r0,{pc}+0x36 ; 0x8001d88
        0x08001d54:    f7fefc5c    ..\.    BL       co_printf ; 0x8000610
        0x08001d58:    e7fe        ..      B        0x8001d58 ; main + 240
        0x08001d5a:    bf00        ..      NOP      
    $d.1
        0x08001d5c:    41474947    GIGA    DCD    1095190855
        0x08001d60:    56454420     DEV    DCD    1447380000
        0x08001d64:    0d454349    ICE.    DCD    222643017
        0x08001d68:    0000000a    ....    DCD    10
        0x08001d6c:    3a4c424d    MBL:    DCD    978076237
        0x08001d70:    6f6f4220     Boo    DCD    1869562400
        0x08001d74:    72662074    t fr    DCD    1919295604
        0x08001d78:    49206d6f    om I    DCD    1226861935
        0x08001d7c:    6567616d    mage    DCD    1701273965
        0x08001d80:    2e642520     %d.    DCD    778315040
        0x08001d84:    00000a0d    ....    DCD    2573
        0x08001d88:    3a525245    ERR:    DCD    978473541
        0x08001d8c:    616d4920     Ima    DCD    1634552096
        0x08001d90:    76206567    ge v    DCD    1981834599
        0x08001d94:    6f746365    ecto    DCD    1869898597
        0x08001d98:    65722072    r re    DCD    1701978226
        0x08001d9c:    20746573    set     DCD    544499059
        0x08001da0:    69207369    is i    DCD    1763734377
        0x08001da4:    6c61766e    nval    DCD    1818326638
        0x08001da8:    28206469    id (    DCD    673211497
        0x08001dac:    78383025    %08x    DCD    2016948261
        0x08001db0:    0a0d2e29    )...    DCD    168635945
        0x08001db4:    00000000    ....    DCD    0
        0x08001db8:    3a525245    ERR:    DCD    978473541
        0x08001dbc:    206f4e20     No     DCD    544165408
        0x08001dc0:    67616d69    imag    DCD    1734438249
        0x08001dc4:    6f742065    e to    DCD    1869881445
        0x08001dc8:    6f6f6220     boo    DCD    1869570592
        0x08001dcc:    72282074    t (r    DCD    1915232372
        0x08001dd0:    3d207465    et =    DCD    1025537125
        0x08001dd4:    29642520     %d)    DCD    694428960
        0x08001dd8:    000a0d2e    ....    DCD    658734
    $t.11
    ob_lock
        0x08001ddc:    f2420010    B...    MOV      r0,#0x2010
        0x08001de0:    f2c40002    ....    MOVT     r0,#0x4002
        0x08001de4:    6801        .h      LDR      r1,[r0,#0]
        0x08001de6:    f4217100    !..q    BIC      r1,r1,#0x200
        0x08001dea:    6001        .`      STR      r1,[r0,#0]
        0x08001dec:    4770        pG      BX       lr
        0x08001dee:    0000        ..      MOVS     r0,r0
    ob_unlock
        0x08001df0:    f2420008    B...    MOV      r0,#0x2008
        0x08001df4:    f2c40002    ....    MOVT     r0,#0x4002
        0x08001df8:    6881        .h      LDR      r1,[r0,#8]
        0x08001dfa:    0589        ..      LSLS     r1,r1,#22
        0x08001dfc:    bf48        H.      IT       MI
        0x08001dfe:    4770        pG      BXMI     lr
        0x08001e00:    f2401123    @.#.    MOV      r1,#0x123
        0x08001e04:    f2c45167    ..gQ    MOVT     r1,#0x4567
        0x08001e08:    6001        .`      STR      r1,[r0,#0]
        0x08001e0a:    f64811ab    H...    MOV      r1,#0x89ab
        0x08001e0e:    f6cc51ef    ...Q    MOVT     r1,#0xcdef
        0x08001e12:    6001        .`      STR      r1,[r0,#0]
        0x08001e14:    4770        pG      BX       lr
        0x08001e16:    0000        ..      MOVS     r0,r0
    printi
        0x08001e18:    e92d41f0    -..A    PUSH     {r4-r8,lr}
        0x08001e1c:    b084        ..      SUB      sp,sp,#0x10
        0x08001e1e:    f8dd8028    ..(.    LDR      r8,[sp,#0x28]
        0x08001e22:    461c        .F      MOV      r4,r3
        0x08001e24:    2800        .(      CMP      r0,#0
        0x08001e26:    d02b        +.      BEQ      0x8001e80 ; printi + 104
        0x08001e28:    f1a1030a    ....    SUB      r3,r1,#0xa
        0x08001e2c:    fab3f383    ....    CLZ      r3,r3
        0x08001e30:    2a00        .*      CMP      r2,#0
        0x08001e32:    bf18        ..      IT       NE
        0x08001e34:    2201        ."      MOVNE    r2,#1
        0x08001e36:    095b        [.      LSRS     r3,r3,#5
        0x08001e38:    401a        .@      ANDS     r2,r2,r3
        0x08001e3a:    2800        .(      CMP      r0,#0
        0x08001e3c:    f04f0300    O...    MOV      r3,#0
        0x08001e40:    bfb8        ..      IT       LT
        0x08001e42:    2301        .#      MOVLT    r3,#1
        0x08001e44:    401a        .@      ANDS     r2,r2,r3
        0x08001e46:    f04f0700    O...    MOV      r7,#0
        0x08001e4a:    bf18        ..      IT       NE
        0x08001e4c:    4240        @B      RSBNE    r0,r0,#0
        0x08001e4e:    ab01        ..      ADD      r3,sp,#4
        0x08001e50:    2800        .(      CMP      r0,#0
        0x08001e52:    f88d700f    ...p    STRB     r7,[sp,#0xf]
        0x08001e56:    d01f        ..      BEQ      0x8001e98 ; printi + 128
        0x08001e58:    9f0b        ..      LDR      r7,[sp,#0x2c]
        0x08001e5a:    330a        .3      ADDS     r3,r3,#0xa
        0x08001e5c:    37c6        .7      ADDS     r7,r7,#0xc6
        0x08001e5e:    bf00        ..      NOP      
        0x08001e60:    fbb0f6f1    ....    UDIV     r6,r0,r1
        0x08001e64:    fb060511    ....    MLS      r5,r6,r1,r0
        0x08001e68:    2d09        .-      CMP      r5,#9
        0x08001e6a:    bfc8        ..      IT       GT
        0x08001e6c:    443d        =D      ADDGT    r5,r7
        0x08001e6e:    3530        05      ADDS     r5,r5,#0x30
        0x08001e70:    f8035901    ...Y    STRB     r5,[r3],#-1
        0x08001e74:    4288        .B      CMP      r0,r1
        0x08001e76:    4630        0F      MOV      r0,r6
        0x08001e78:    d2f2        ..      BCS      0x8001e60 ; printi + 72
        0x08001e7a:    1c5e        ^.      ADDS     r6,r3,#1
        0x08001e7c:    b97a        z.      CBNZ     r2,0x8001e9e ; printi + 134
        0x08001e7e:    e016        ..      B        0x8001eae ; printi + 150
        0x08001e80:    2030        0       MOVS     r0,#0x30
        0x08001e82:    f8ad0004    ....    STRH     r0,[sp,#4]
        0x08001e86:    a901        ..      ADD      r1,sp,#4
        0x08001e88:    2000        .       MOVS     r0,#0
        0x08001e8a:    4622        "F      MOV      r2,r4
        0x08001e8c:    4643        CF      MOV      r3,r8
        0x08001e8e:    f000f81f    ....    BL       prints ; 0x8001ed0
        0x08001e92:    b004        ..      ADD      sp,sp,#0x10
        0x08001e94:    e8bd81f0    ....    POP      {r4-r8,pc}
        0x08001e98:    f103060b    ....    ADD      r6,r3,#0xb
        0x08001e9c:    b13a        :.      CBZ      r2,0x8001eae ; printi + 150
        0x08001e9e:    2c00        .,      CMP      r4,#0
        0x08001ea0:    bf18        ..      IT       NE
        0x08001ea2:    f0180002    ....    ANDSNE   r0,r8,#2
        0x08001ea6:    d10d        ..      BNE      0x8001ec4 ; printi + 172
        0x08001ea8:    202d        -       MOVS     r0,#0x2d
        0x08001eaa:    f8060d01    ....    STRB     r0,[r6,#-1]!
        0x08001eae:    2700        .'      MOVS     r7,#0
        0x08001eb0:    2000        .       MOVS     r0,#0
        0x08001eb2:    4631        1F      MOV      r1,r6
        0x08001eb4:    4622        "F      MOV      r2,r4
        0x08001eb6:    4643        CF      MOV      r3,r8
        0x08001eb8:    f000f80a    ....    BL       prints ; 0x8001ed0
        0x08001ebc:    4438        8D      ADD      r0,r0,r7
        0x08001ebe:    b004        ..      ADD      sp,sp,#0x10
        0x08001ec0:    e8bd81f0    ....    POP      {r4-r8,pc}
        0x08001ec4:    202d        -       MOVS     r0,#0x2d
        0x08001ec6:    f001f95d    ..].    BL       uart_putc ; 0x8003184
        0x08001eca:    3c01        .<      SUBS     r4,#1
        0x08001ecc:    2701        .'      MOVS     r7,#1
        0x08001ece:    e7ef        ..      B        0x8001eb0 ; printi + 152
    prints
        0x08001ed0:    e92d43f0    -..C    PUSH     {r4-r9,lr}
        0x08001ed4:    b081        ..      SUB      sp,sp,#4
        0x08001ed6:    4615        .F      MOV      r5,r2
        0x08001ed8:    4688        .F      MOV      r8,r1
        0x08001eda:    2a01        .*      CMP      r2,#1
        0x08001edc:    4604        .F      MOV      r4,r0
        0x08001ede:    db14        ..      BLT      0x8001f0a ; prints + 58
        0x08001ee0:    f8980000    ....    LDRB     r0,[r8,#0]
        0x08001ee4:    2100        .!      MOVS     r1,#0
        0x08001ee6:    2800        .(      CMP      r0,#0
        0x08001ee8:    f04f0000    O...    MOV      r0,#0
        0x08001eec:    d016        ..      BEQ      0x8001f1c ; prints + 76
        0x08001eee:    bf00        ..      NOP      
        0x08001ef0:    eb080201    ....    ADD      r2,r8,r1
        0x08001ef4:    7857        Wx      LDRB     r7,[r2,#1]
        0x08001ef6:    b167        g.      CBZ      r7,0x8001f12 ; prints + 66
        0x08001ef8:    7897        .x      LDRB     r7,[r2,#2]
        0x08001efa:    b167        g.      CBZ      r7,0x8001f16 ; prints + 70
        0x08001efc:    78d7        .x      LDRB     r7,[r2,#3]
        0x08001efe:    b167        g.      CBZ      r7,0x8001f1a ; prints + 74
        0x08001f00:    7912        .y      LDRB     r2,[r2,#4]
        0x08001f02:    3104        .1      ADDS     r1,#4
        0x08001f04:    2a00        .*      CMP      r2,#0
        0x08001f06:    d1f3        ..      BNE      0x8001ef0 ; prints + 32
        0x08001f08:    e008        ..      B        0x8001f1c ; prints + 76
        0x08001f0a:    2600        .&      MOVS     r6,#0
        0x08001f0c:    f04f0920    O. .    MOV      r9,#0x20
        0x08001f10:    e025        %.      B        0x8001f5e ; prints + 142
        0x08001f12:    3101        .1      ADDS     r1,#1
        0x08001f14:    e002        ..      B        0x8001f1c ; prints + 76
        0x08001f16:    3102        .1      ADDS     r1,#2
        0x08001f18:    e000        ..      B        0x8001f1c ; prints + 76
        0x08001f1a:    3103        .1      ADDS     r1,#3
        0x08001f1c:    1a6e        n.      SUBS     r6,r5,r1
        0x08001f1e:    bfd8        ..      IT       LE
        0x08001f20:    4606        .F      MOVLE    r6,r0
        0x08001f22:    0798        ..      LSLS     r0,r3,#30
        0x08001f24:    f04f0930    O.0.    MOV      r9,#0x30
        0x08001f28:    bf58        X.      IT       PL
        0x08001f2a:    f04f0920    O. .    MOVPL    r9,#0x20
        0x08001f2e:    07d8        ..      LSLS     r0,r3,#31
        0x08001f30:    d113        ..      BNE      0x8001f5a ; prints + 138
        0x08001f32:    2e01        ..      CMP      r6,#1
        0x08001f34:    db11        ..      BLT      0x8001f5a ; prints + 138
        0x08001f36:    4635        5F      MOV      r5,r6
        0x08001f38:    b144        D.      CBZ      r4,0x8001f4c ; prints + 124
        0x08001f3a:    6820         h      LDR      r0,[r4,#0]
        0x08001f3c:    f8809000    ....    STRB     r9,[r0,#0]
        0x08001f40:    6820         h      LDR      r0,[r4,#0]
        0x08001f42:    3001        .0      ADDS     r0,#1
        0x08001f44:    6020         `      STR      r0,[r4,#0]
        0x08001f46:    3d01        .=      SUBS     r5,#1
        0x08001f48:    d1f6        ..      BNE      0x8001f38 ; prints + 104
        0x08001f4a:    e004        ..      B        0x8001f56 ; prints + 134
        0x08001f4c:    4648        HF      MOV      r0,r9
        0x08001f4e:    f001f919    ....    BL       uart_putc ; 0x8003184
        0x08001f52:    3d01        .=      SUBS     r5,#1
        0x08001f54:    d1f0        ..      BNE      0x8001f38 ; prints + 104
        0x08001f56:    2500        .%      MOVS     r5,#0
        0x08001f58:    e001        ..      B        0x8001f5e ; prints + 142
        0x08001f5a:    4635        5F      MOV      r5,r6
        0x08001f5c:    2600        .&      MOVS     r6,#0
        0x08001f5e:    f8980000    ....    LDRB     r0,[r8,#0]
        0x08001f62:    b188        ..      CBZ      r0,0x8001f88 ; prints + 184
        0x08001f64:    f1080701    ....    ADD      r7,r8,#1
        0x08001f68:    b134        4.      CBZ      r4,0x8001f78 ; prints + 168
        0x08001f6a:    6821        !h      LDR      r1,[r4,#0]
        0x08001f6c:    7008        .p      STRB     r0,[r1,#0]
        0x08001f6e:    6820         h      LDR      r0,[r4,#0]
        0x08001f70:    3001        .0      ADDS     r0,#1
        0x08001f72:    6020         `      STR      r0,[r4,#0]
        0x08001f74:    e003        ..      B        0x8001f7e ; prints + 174
        0x08001f76:    bf00        ..      NOP      
        0x08001f78:    b2c0        ..      UXTB     r0,r0
        0x08001f7a:    f001f903    ....    BL       uart_putc ; 0x8003184
        0x08001f7e:    f8170b01    ....    LDRB     r0,[r7],#1
        0x08001f82:    3601        .6      ADDS     r6,#1
        0x08001f84:    2800        .(      CMP      r0,#0
        0x08001f86:    d1ef        ..      BNE      0x8001f68 ; prints + 152
        0x08001f88:    2d01        .-      CMP      r5,#1
        0x08001f8a:    db10        ..      BLT      0x8001fae ; prints + 222
        0x08001f8c:    442e        .D      ADD      r6,r6,r5
        0x08001f8e:    bf00        ..      NOP      
        0x08001f90:    b144        D.      CBZ      r4,0x8001fa4 ; prints + 212
        0x08001f92:    6820         h      LDR      r0,[r4,#0]
        0x08001f94:    f8809000    ....    STRB     r9,[r0,#0]
        0x08001f98:    6820         h      LDR      r0,[r4,#0]
        0x08001f9a:    3001        .0      ADDS     r0,#1
        0x08001f9c:    6020         `      STR      r0,[r4,#0]
        0x08001f9e:    3d01        .=      SUBS     r5,#1
        0x08001fa0:    d1f6        ..      BNE      0x8001f90 ; prints + 192
        0x08001fa2:    e004        ..      B        0x8001fae ; prints + 222
        0x08001fa4:    4648        HF      MOV      r0,r9
        0x08001fa6:    f001f8ed    ....    BL       uart_putc ; 0x8003184
        0x08001faa:    3d01        .=      SUBS     r5,#1
        0x08001fac:    d1f0        ..      BNE      0x8001f90 ; prints + 192
        0x08001fae:    4630        0F      MOV      r0,r6
        0x08001fb0:    b001        ..      ADD      sp,sp,#4
        0x08001fb2:    e8bd83f0    ....    POP      {r4-r9,pc}
        0x08001fb6:    0000        ..      MOVS     r0,r0
    rcu_clock_freq_get
        0x08001fb8:    b570        p.      PUSH     {r4-r6,lr}
        0x08001fba:    f6430c8c    C...    MOV      r12,#0x388c
        0x08001fbe:    f2c40c02    ....    MOVT     r12,#0x4002
        0x08001fc2:    f85c1c84    \...    LDR      r1,[r12,#-0x84]
        0x08001fc6:    f3c10281    ....    UBFX     r2,r1,#2,#2
        0x08001fca:    4601        .F      MOV      r1,r0
        0x08001fcc:    f2424000    B..@    MOVW     r0,#0x2400
        0x08001fd0:    2a02        .*      CMP      r2,#2
        0x08001fd2:    f2c000f4    ....    MOVT     r0,#0xf4
        0x08001fd6:    d007        ..      BEQ      0x8001fe8 ; rcu_clock_freq_get + 48
        0x08001fd8:    4686        .F      MOV      lr,r0
        0x08001fda:    2a01        .*      CMP      r2,#1
        0x08001fdc:    bf04        ..      ITT      EQ
        0x08001fde:    f6452e00    E...    MOVWEQ   lr,#0x5a00
        0x08001fe2:    f2c02e62    ..b.    MOVTEQ   lr,#0x262
        0x08001fe6:    e01d        ..      B        0x8002024 ; rcu_clock_freq_get + 108
        0x08001fe8:    f85c2c88    \..,    LDR      r2,[r12,#-0x88]
        0x08001fec:    f85c3c88    \..<    LDR      r3,[r12,#-0x88]
        0x08001ff0:    f002023f    ..?.    AND      r2,r2,#0x3f
        0x08001ff4:    f3c31e88    ....    UBFX     lr,r3,#6,#9
        0x08001ff8:    f85c4c88    \..L    LDR      r4,[r12,#-0x88]
        0x08001ffc:    f3c44401    ...D    UBFX     r4,r4,#16,#2
        0x08002000:    f85c3c88    \..<    LDR      r3,[r12,#-0x88]
        0x08002004:    041b        ..      LSLS     r3,r3,#16
        0x08002006:    f6452300    E..#    MOVW     r3,#0x5a00
        0x0800200a:    f2c02362    ..b#    MOVT     r3,#0x262
        0x0800200e:    bf58        X.      IT       PL
        0x08002010:    4603        .F      MOVPL    r3,r0
        0x08002012:    fbb3f2f2    ....    UDIV     r2,r3,r2
        0x08002016:    2302        .#      MOVS     r3,#2
        0x08002018:    eb030344    ..D.    ADD      r3,r3,r4,LSL #1
        0x0800201c:    fb02f20e    ....    MUL      r2,r2,lr
        0x08002020:    fbb2fef3    ....    UDIV     lr,r2,r3
        0x08002024:    f85c2c84    \..,    LDR      r2,[r12,#-0x84]
        0x08002028:    2906        .)      CMP      r1,#6
        0x0800202a:    f3c21203    ....    UBFX     r2,r2,#4,#4
        0x0800202e:    f85c3c84    \..<    LDR      r3,[r12,#-0x84]
        0x08002032:    f3c32482    ...$    UBFX     r4,r3,#10,#3
        0x08002036:    f85c3c84    \..<    LDR      r3,[r12,#-0x84]
        0x0800203a:    f3c33342    ..B3    UBFX     r3,r3,#13,#3
        0x0800203e:    d830        0.      BHI      0x80020a2 ; rcu_clock_freq_get + 234
        0x08002040:    a538        8.      ADR      r5,{pc}+0xe4 ; 0x8002124
        0x08002042:    5caa        .\      LDRB     r2,[r5,r2]
        0x08002044:    f2433562    C.b5    MOV      r5,#0x3362
        0x08002048:    f6c00500    ....    MOVT     r5,#0x800
        0x0800204c:    5d2c        ,]      LDRB     r4,[r5,r4]
        0x0800204e:    5ced        .\      LDRB     r5,[r5,r3]
        0x08002050:    fa2ef202    ....    LSR      r2,lr,r2
        0x08002054:    fa22f304    "...    LSR      r3,r2,r4
        0x08002058:    fa22f405    "...    LSR      r4,r2,r5
        0x0800205c:    e8dff001    ....    TBB      [pc,r1]
    $d.85
        0x08002060:    26572404    .$W&    DCD    643245060
        0x08002064:    00412806    .(A.    DCD    4270086
    $t.86
        0x08002068:    4670        pF      MOV      r0,lr
        0x0800206a:    bd70        p.      POP      {r4-r6,pc}
        0x0800206c:    f8dc1000    ....    LDR      r1,[r12,#0]
        0x08002070:    f1b14f80    ...O    CMP      r1,#0x40000000
        0x08002074:    d34b        K.      BCC      0x800210e ; rcu_clock_freq_get + 342
        0x08002076:    f8dc1000    ....    LDR      r1,[r12,#0]
        0x0800207a:    4673        sF      MOV      r3,lr
        0x0800207c:    f0014140    ..@A    AND      r1,r1,#0xc0000000
        0x08002080:    f1b14f80    ...O    CMP      r1,#0x40000000
        0x08002084:    d043        C.      BEQ      0x800210e ; rcu_clock_freq_get + 342
        0x08002086:    f8dc1000    ....    LDR      r1,[r12,#0]
        0x0800208a:    f0014140    ..@A    AND      r1,r1,#0xc0000000
        0x0800208e:    f1b14f00    ...O    CMP      r1,#0x80000000
        0x08002092:    d022        ".      BEQ      0x80020da ; rcu_clock_freq_get + 290
        0x08002094:    f8dc1000    ....    LDR      r1,[r12,#0]
        0x08002098:    0f89        ..      LSRS     r1,r1,#30
        0x0800209a:    2902        .)      CMP      r1,#2
        0x0800209c:    bf98        ..      IT       LS
        0x0800209e:    2000        .       MOVLS    r0,#0
        0x080020a0:    bd70        p.      POP      {r4-r6,pc}
        0x080020a2:    2300        .#      MOVS     r3,#0
        0x080020a4:    4618        .F      MOV      r0,r3
        0x080020a6:    bd70        p.      POP      {r4-r6,pc}
        0x080020a8:    4610        .F      MOV      r0,r2
        0x080020aa:    bd70        p.      POP      {r4-r6,pc}
        0x080020ac:    4620         F      MOV      r0,r4
        0x080020ae:    bd70        p.      POP      {r4-r6,pc}
        0x080020b0:    f8dc1000    ....    LDR      r1,[r12,#0]
        0x080020b4:    4623        #F      MOV      r3,r4
        0x080020b6:    f0115f40    ..@_    TST      r1,#0x30000000
        0x080020ba:    d028        (.      BEQ      0x800210e ; rcu_clock_freq_get + 342
        0x080020bc:    f8dc1000    ....    LDR      r1,[r12,#0]
        0x080020c0:    4673        sF      MOV      r3,lr
        0x080020c2:    f0015140    ..@Q    AND      r1,r1,#0x30000000
        0x080020c6:    f1b15f80    ..._    CMP      r1,#0x10000000
        0x080020ca:    d020         .      BEQ      0x800210e ; rcu_clock_freq_get + 342
        0x080020cc:    f8dc1000    ....    LDR      r1,[r12,#0]
        0x080020d0:    f0015140    ..@Q    AND      r1,r1,#0x30000000
        0x080020d4:    f1b15f00    ..._    CMP      r1,#0x20000000
        0x080020d8:    d11b        ..      BNE      0x8002112 ; rcu_clock_freq_get + 346
        0x080020da:    f44f4300    O..C    MOV      r3,#0x8000
        0x080020de:    4618        .F      MOV      r0,r3
        0x080020e0:    bd70        p.      POP      {r4-r6,pc}
        0x080020e2:    f8dc1000    ....    LDR      r1,[r12,#0]
        0x080020e6:    f0116f40    ..@o    TST      r1,#0xc000000
        0x080020ea:    d010        ..      BEQ      0x800210e ; rcu_clock_freq_get + 342
        0x080020ec:    f8dc1000    ....    LDR      r1,[r12,#0]
        0x080020f0:    4673        sF      MOV      r3,lr
        0x080020f2:    f0016140    ..@a    AND      r1,r1,#0xc000000
        0x080020f6:    f1b16f80    ...o    CMP      r1,#0x4000000
        0x080020fa:    d008        ..      BEQ      0x800210e ; rcu_clock_freq_get + 342
        0x080020fc:    f8dc1000    ....    LDR      r1,[r12,#0]
        0x08002100:    f0016140    ..@a    AND      r1,r1,#0xc000000
        0x08002104:    f1b16f00    ...o    CMP      r1,#0x8000000
        0x08002108:    bf18        ..      IT       NE
        0x0800210a:    2000        .       MOVNE    r0,#0
        0x0800210c:    4603        .F      MOV      r3,r0
        0x0800210e:    4618        .F      MOV      r0,r3
        0x08002110:    bd70        p.      POP      {r4-r6,pc}
        0x08002112:    f8dc1000    ....    LDR      r1,[r12,#0]
        0x08002116:    f0015140    ..@Q    AND      r1,r1,#0x30000000
        0x0800211a:    f1b15f40    ..@_    CMP      r1,#0x30000000
        0x0800211e:    bf18        ..      IT       NE
        0x08002120:    2000        .       MOVNE    r0,#0
        0x08002122:    bd70        p.      POP      {r4-r6,pc}
    $d.87
        0x08002124:    00000000    ....    DCD    0
        0x08002128:    00000000    ....    DCD    0
        0x0800212c:    04030201    ....    DCD    67305985
        0x08002130:    09080706    ....    DCD    151521030
    $t.4
    rcu_periph_clock_enable
        0x08002134:    f6430300    C...    MOVW     r3,#0x3800
        0x08002138:    f000011f    ....    AND      r1,r0,#0x1f
        0x0800213c:    0980        ..      LSRS     r0,r0,#6
        0x0800213e:    f2c40302    ....    MOVT     r3,#0x4002
        0x08002142:    f04f0c01    O...    MOV      r12,#1
        0x08002146:    58c2        .X      LDR      r2,[r0,r3]
        0x08002148:    fa0cf101    ....    LSL      r1,r12,r1
        0x0800214c:    4311        .C      ORRS     r1,r1,r2
        0x0800214e:    50c1        .P      STR      r1,[r0,r3]
        0x08002150:    4770        pG      BX       lr
        0x08002152:    0000        ..      MOVS     r0,r0
    rcu_periph_reset_disable
        0x08002154:    f6430300    C...    MOVW     r3,#0x3800
        0x08002158:    f000011f    ....    AND      r1,r0,#0x1f
        0x0800215c:    0980        ..      LSRS     r0,r0,#6
        0x0800215e:    f2c40302    ....    MOVT     r3,#0x4002
        0x08002162:    f04f0c01    O...    MOV      r12,#1
        0x08002166:    58c2        .X      LDR      r2,[r0,r3]
        0x08002168:    fa0cf101    ....    LSL      r1,r12,r1
        0x0800216c:    ea220101    "...    BIC      r1,r2,r1
        0x08002170:    50c1        .P      STR      r1,[r0,r3]
        0x08002172:    4770        pG      BX       lr
    rcu_periph_reset_enable
        0x08002174:    f6430300    C...    MOVW     r3,#0x3800
        0x08002178:    f000011f    ....    AND      r1,r0,#0x1f
        0x0800217c:    0980        ..      LSRS     r0,r0,#6
        0x0800217e:    f2c40302    ....    MOVT     r3,#0x4002
        0x08002182:    f04f0c01    O...    MOV      r12,#1
        0x08002186:    58c2        .X      LDR      r2,[r0,r3]
        0x08002188:    fa0cf101    ....    LSL      r1,r12,r1
        0x0800218c:    4311        .C      ORRS     r1,r1,r2
        0x0800218e:    50c1        .P      STR      r1,[r0,r3]
        0x08002190:    4770        pG      BX       lr
        0x08002192:    0000        ..      MOVS     r0,r0
    sys_err_process_set
        0x08002194:    b580        ..      PUSH     {r7,lr}
        0x08002196:    b082        ..      SUB      sp,sp,#8
        0x08002198:    2801        .(      CMP      r0,#1
        0x0800219a:    f88d0007    ....    STRB     r0,[sp,#7]
        0x0800219e:    bf8f        ..      ITEEE    HI
        0x080021a0:    f04f30ff    O..0    MOVHI    r0,#0xffffffff
        0x080021a4:    f10d0207    ....    ADDLS    r2,sp,#7
        0x080021a8:    2001        .       MOVLS    r0,#1
        0x080021aa:    2101        .!      MOVLS    r1,#1
        0x080021ac:    bf98        ..      IT       LS
        0x080021ae:    f000fc19    ....    BLLS     sys_status_internal_set ; 0x80029e4
        0x080021b2:    b002        ..      ADD      sp,sp,#8
        0x080021b4:    bd80        ..      POP      {r7,pc}
        0x080021b6:    0000        ..      MOVS     r0,r0
    sys_fw_version_set
        0x080021b8:    b510        ..      PUSH     {r4,lr}
        0x080021ba:    b082        ..      SUB      sp,sp,#8
        0x080021bc:    460c        .F      MOV      r4,r1
        0x080021be:    9101        ..      STR      r1,[sp,#4]
        0x080021c0:    2100        .!      MOVS     r1,#0
        0x080021c2:    2808        .(      CMP      r0,#8
        0x080021c4:    9100        ..      STR      r1,[sp,#0]
        0x080021c6:    bf1e        ..      ITTT     NE
        0x080021c8:    f04f30ff    O..0    MOVNE    r0,#0xffffffff
        0x080021cc:    b002        ..      ADDNE    sp,sp,#8
        0x080021ce:    bd10        ..      POPNE    {r4,pc}
        0x080021d0:    466a        jF      MOV      r2,sp
        0x080021d2:    2007        .       MOVS     r0,#7
        0x080021d4:    2104        .!      MOVS     r1,#4
        0x080021d6:    f000faf9    ....    BL       sys_status_get ; 0x80027cc
        0x080021da:    1c41        A.      ADDS     r1,r0,#1
        0x080021dc:    2901        .)      CMP      r1,#1
        0x080021de:    d80e        ..      BHI      0x80021fe ; sys_fw_version_set + 70
        0x080021e0:    b109        ..      CBZ      r1,0x80021e6 ; sys_fw_version_set + 46
        0x080021e2:    9800        ..      LDR      r0,[sp,#0]
        0x080021e4:    e001        ..      B        0x80021ea ; sys_fw_version_set + 50
        0x080021e6:    2000        .       MOVS     r0,#0
        0x080021e8:    9000        ..      STR      r0,[sp,#0]
        0x080021ea:    42a0        .B      CMP      r0,r4
        0x080021ec:    bf22        ".      ITTT     CS
        0x080021ee:    2000        .       MOVCS    r0,#0
        0x080021f0:    b002        ..      ADDCS    sp,sp,#8
        0x080021f2:    bd10        ..      POPCS    {r4,pc}
        0x080021f4:    aa01        ..      ADD      r2,sp,#4
        0x080021f6:    2007        .       MOVS     r0,#7
        0x080021f8:    2104        .!      MOVS     r1,#4
        0x080021fa:    f000fbf3    ....    BL       sys_status_internal_set ; 0x80029e4
        0x080021fe:    b002        ..      ADD      sp,sp,#8
        0x08002200:    bd10        ..      POP      {r4,pc}
        0x08002202:    0000        ..      MOVS     r0,r0
    sys_img_flag_set
        0x08002204:    b570        p.      PUSH     {r4-r6,lr}
        0x08002206:    b082        ..      SUB      sp,sp,#8
        0x08002208:    4615        .F      MOV      r5,r2
        0x0800220a:    460e        .F      MOV      r6,r1
        0x0800220c:    2100        .!      MOVS     r1,#0
        0x0800220e:    2800        .(      CMP      r0,#0
        0x08002210:    f88d1007    ....    STRB     r1,[sp,#7]
        0x08002214:    d003        ..      BEQ      0x800221e ; sys_img_flag_set + 26
        0x08002216:    2801        .(      CMP      r0,#1
        0x08002218:    d10f        ..      BNE      0x800223a ; sys_img_flag_set + 54
        0x0800221a:    2404        .$      MOVS     r4,#4
        0x0800221c:    e000        ..      B        0x8002220 ; sys_img_flag_set + 28
        0x0800221e:    2403        .$      MOVS     r4,#3
        0x08002220:    f10d0207    ....    ADD      r2,sp,#7
        0x08002224:    4620         F      MOV      r0,r4
        0x08002226:    2101        .!      MOVS     r1,#1
        0x08002228:    f000fad0    ....    BL       sys_status_get ; 0x80027cc
        0x0800222c:    1c41        A.      ADDS     r1,r0,#1
        0x0800222e:    2901        .)      CMP      r1,#1
        0x08002230:    d82b        +.      BHI      0x800228a ; sys_img_flag_set + 134
        0x08002232:    b131        1.      CBZ      r1,0x8002242 ; sys_img_flag_set + 62
        0x08002234:    f89d0007    ....    LDRB     r0,[sp,#7]
        0x08002238:    e006        ..      B        0x8002248 ; sys_img_flag_set + 68
        0x0800223a:    f06f0002    o...    MVN      r0,#2
        0x0800223e:    b002        ..      ADD      sp,sp,#8
        0x08002240:    bd70        p.      POP      {r4-r6,pc}
        0x08002242:    2000        .       MOVS     r0,#0
        0x08002244:    f88d0007    ....    STRB     r0,[sp,#7]
        0x08002248:    ea000106    ....    AND      r1,r0,r6
        0x0800224c:    42a9        .B      CMP      r1,r5
        0x0800224e:    bf02        ..      ITTT     EQ
        0x08002250:    2000        .       MOVEQ    r0,#0
        0x08002252:    b002        ..      ADDEQ    sp,sp,#8
        0x08002254:    bd70        p.      POPEQ    {r4-r6,pc}
        0x08002256:    f08601ff    ....    EOR      r1,r6,#0xff
        0x0800225a:    4008        .@      ANDS     r0,r0,r1
        0x0800225c:    ea400105    @...    ORR      r1,r0,r5
        0x08002260:    2913        .)      CMP      r1,#0x13
        0x08002262:    f06f0003    o...    MVN      r0,#3
        0x08002266:    f88d1007    ....    STRB     r1,[sp,#7]
        0x0800226a:    d80e        ..      BHI      0x800228a ; sys_img_flag_set + 134
        0x0800226c:    2201        ."      MOVS     r2,#1
        0x0800226e:    fa02f101    ....    LSL      r1,r2,r1
        0x08002272:    f642422f    B./B    MOV      r2,#0x2c2f
        0x08002276:    f2c00208    ....    MOVT     r2,#8
        0x0800227a:    4211        .B      TST      r1,r2
        0x0800227c:    d005        ..      BEQ      0x800228a ; sys_img_flag_set + 134
        0x0800227e:    f10d0207    ....    ADD      r2,sp,#7
        0x08002282:    4620         F      MOV      r0,r4
        0x08002284:    2101        .!      MOVS     r1,#1
        0x08002286:    f000fbad    ....    BL       sys_status_internal_set ; 0x80029e4
        0x0800228a:    b002        ..      ADD      sp,sp,#8
        0x0800228c:    bd70        p.      POP      {r4-r6,pc}
        0x0800228e:    0000        ..      MOVS     r0,r0
    sys_running_img_set
        0x08002290:    b510        ..      PUSH     {r4,lr}
        0x08002292:    b082        ..      SUB      sp,sp,#8
        0x08002294:    4604        .F      MOV      r4,r0
        0x08002296:    f88d0007    ....    STRB     r0,[sp,#7]
        0x0800229a:    20ff        .       MOVS     r0,#0xff
        0x0800229c:    f88d0006    ....    STRB     r0,[sp,#6]
        0x080022a0:    f10d0206    ....    ADD      r2,sp,#6
        0x080022a4:    2005        .       MOVS     r0,#5
        0x080022a6:    2101        .!      MOVS     r1,#1
        0x080022a8:    f000fa90    ....    BL       sys_status_get ; 0x80027cc
        0x080022ac:    1c41        A.      ADDS     r1,r0,#1
        0x080022ae:    2901        .)      CMP      r1,#1
        0x080022b0:    d812        ..      BHI      0x80022d8 ; sys_running_img_set + 72
        0x080022b2:    f89d0006    ....    LDRB     r0,[sp,#6]
        0x080022b6:    42a0        .B      CMP      r0,r4
        0x080022b8:    bf02        ..      ITTT     EQ
        0x080022ba:    2000        .       MOVEQ    r0,#0
        0x080022bc:    b002        ..      ADDEQ    sp,sp,#8
        0x080022be:    bd10        ..      POPEQ    {r4,pc}
        0x080022c0:    2c01        .,      CMP      r4,#1
        0x080022c2:    bf82        ..      ITTT     HI
        0x080022c4:    f06f0002    o...    MVNHI    r0,#2
        0x080022c8:    b002        ..      ADDHI    sp,sp,#8
        0x080022ca:    bd10        ..      POPHI    {r4,pc}
        0x080022cc:    f10d0207    ....    ADD      r2,sp,#7
        0x080022d0:    2005        .       MOVS     r0,#5
        0x080022d2:    2101        .!      MOVS     r1,#1
        0x080022d4:    f000fb86    ....    BL       sys_status_internal_set ; 0x80029e4
        0x080022d8:    b002        ..      ADD      sp,sp,#8
        0x080022da:    bd10        ..      POP      {r4,pc}
    sys_statu_integritys_check
        0x080022dc:    b5f0        ..      PUSH     {r4-r7,lr}
        0x080022de:    b085        ..      SUB      sp,sp,#0x14
        0x080022e0:    a801        ..      ADD      r0,sp,#4
        0x080022e2:    4669        iF      MOV      r1,sp
        0x080022e4:    f7fef81a    ....    BL       active_header_get ; 0x800031c
        0x080022e8:    4605        .F      MOV      r5,r0
        0x080022ea:    2800        .(      CMP      r0,#0
        0x080022ec:    d14c        L.      BNE      0x8002388 ; sys_statu_integritys_check + 172
        0x080022ee:    9d01        ..      LDR      r5,[sp,#4]
        0x080022f0:    f1a50710    ....    SUB      r7,r5,#0x10
        0x080022f4:    f5b76f7f    ...o    CMP      r7,#0xff0
        0x080022f8:    d901        ..      BLS      0x80022fe ; sys_statu_integritys_check + 34
        0x080022fa:    2504        .%      MOVS     r5,#4
        0x080022fc:    e044        D.      B        0x8002388 ; sys_statu_integritys_check + 172
        0x080022fe:    9803        ..      LDR      r0,[sp,#0xc]
        0x08002300:    f2427150    B.Pq    MOV      r1,#0x2750
        0x08002304:    f6c11134    ..4.    MOVT     r1,#0x1934
        0x08002308:    4288        .B      CMP      r0,r1
        0x0800230a:    d114        ..      BNE      0x8002336 ; sys_statu_integritys_check + 90
        0x0800230c:    f1050010    ....    ADD      r0,r5,#0x10
        0x08002310:    0729        ).      LSLS     r1,r5,#28
        0x08002312:    462e        .F      MOV      r6,r5
        0x08002314:    bf18        ..      IT       NE
        0x08002316:    f020060f     ...    BICNE    r6,r0,#0xf
        0x0800231a:    4630        0F      MOV      r0,r6
        0x0800231c:    2101        .!      MOVS     r1,#1
        0x0800231e:    f000fff8    ....    BL       $Ven$TT$L$$mbedtls_calloc ; 0x8003312
        0x08002322:    b150        P.      CBZ      r0,0x800233a ; sys_statu_integritys_check + 94
        0x08002324:    4604        .F      MOV      r4,r0
        0x08002326:    9800        ..      LDR      r0,[sp,#0]
        0x08002328:    4621        !F      MOV      r1,r4
        0x0800232a:    4632        2F      MOV      r2,r6
        0x0800232c:    f7fefca2    ....    BL       flash_indirect_read ; 0x8000c74
        0x08002330:    b128        (.      CBZ      r0,0x800233e ; sys_statu_integritys_check + 98
        0x08002332:    2501        .%      MOVS     r5,#1
        0x08002334:    e025        %.      B        0x8002382 ; sys_statu_integritys_check + 166
        0x08002336:    2508        .%      MOVS     r5,#8
        0x08002338:    e026        &.      B        0x8002388 ; sys_statu_integritys_check + 172
        0x0800233a:    2580        .%      MOVS     r5,#0x80
        0x0800233c:    e024        $.      B        0x8002388 ; sys_statu_integritys_check + 172
        0x0800233e:    2000        .       MOVS     r0,#0
        0x08002340:    4621        !F      MOV      r1,r4
        0x08002342:    4632        2F      MOV      r2,r6
        0x08002344:    4623        #F      MOV      r3,r4
        0x08002346:    f000f8ff    ....    BL       sys_status_crypt ; 0x8002548
        0x0800234a:    b108        ..      CBZ      r0,0x8002350 ; sys_statu_integritys_check + 116
        0x0800234c:    2540        @%      MOVS     r5,#0x40
        0x0800234e:    e018        ..      B        0x8002382 ; sys_statu_integritys_check + 166
        0x08002350:    4620         F      MOV      r0,r4
        0x08002352:    4629        )F      MOV      r1,r5
        0x08002354:    f7fef916    ....    BL       checksum_cal ; 0x8000584
        0x08002358:    b108        ..      CBZ      r0,0x800235e ; sys_statu_integritys_check + 130
        0x0800235a:    2510        .%      MOVS     r5,#0x10
        0x0800235c:    e011        ..      B        0x8002382 ; sys_statu_integritys_check + 166
        0x0800235e:    b17f        ..      CBZ      r7,0x8002380 ; sys_statu_integritys_check + 164
        0x08002360:    f1040010    ....    ADD      r0,r4,#0x10
        0x08002364:    2500        .%      MOVS     r5,#0
        0x08002366:    7801        .x      LDRB     r1,[r0,#0]
        0x08002368:    29ff        .)      CMP      r1,#0xff
        0x0800236a:    d007        ..      BEQ      0x800237c ; sys_statu_integritys_check + 160
        0x0800236c:    7841        Ax      LDRB     r1,[r0,#1]
        0x0800236e:    2910        .)      CMP      r1,#0x10
        0x08002370:    d804        ..      BHI      0x800237c ; sys_statu_integritys_check + 160
        0x08002372:    3102        .1      ADDS     r1,#2
        0x08002374:    4408        .D      ADD      r0,r0,r1
        0x08002376:    1a7f        ..      SUBS     r7,r7,r1
        0x08002378:    d1f5        ..      BNE      0x8002366 ; sys_statu_integritys_check + 138
        0x0800237a:    e002        ..      B        0x8002382 ; sys_statu_integritys_check + 166
        0x0800237c:    2520         %      MOVS     r5,#0x20
        0x0800237e:    e000        ..      B        0x8002382 ; sys_statu_integritys_check + 166
        0x08002380:    2500        .%      MOVS     r5,#0
        0x08002382:    4620         F      MOV      r0,r4
        0x08002384:    f000ffca    ....    BL       $Ven$TT$L$$mbedtls_free ; 0x800331c
        0x08002388:    4628        (F      MOV      r0,r5
        0x0800238a:    b005        ..      ADD      sp,sp,#0x14
        0x0800238c:    bdf0        ..      POP      {r4-r7,pc}
        0x0800238e:    0000        ..      MOVS     r0,r0
    sys_status_check
        0x08002390:    b580        ..      PUSH     {r7,lr}
        0x08002392:    b084        ..      SUB      sp,sp,#0x10
        0x08002394:    f640309c    @..0    MOV      r0,#0xb9c
        0x08002398:    f2c20000    ....    MOVT     r0,#0x2000
        0x0800239c:    f44f5180    O..Q    MOV      r1,#0x1000
        0x080023a0:    f000ffc1    ....    BL       $Ven$TT$L$$mbedtls_memory_buffer_alloc_init ; 0x8003326
        0x080023a4:    f6405005    @..P    MOV      r0,#0xd05
        0x080023a8:    f7fffec4    ....    BL       rcu_periph_clock_enable ; 0x8002134
        0x080023ac:    f6405004    @..P    MOV      r0,#0xd04
        0x080023b0:    f7fffec0    ....    BL       rcu_periph_clock_enable ; 0x8002134
        0x080023b4:    f6405003    @..P    MOV      r0,#0xd03
        0x080023b8:    f7fffebc    ....    BL       rcu_periph_clock_enable ; 0x8002134
        0x080023bc:    2000        .       MOVS     r0,#0
        0x080023be:    2108        .!      MOVS     r1,#8
        0x080023c0:    2209        ."      MOVS     r2,#9
        0x080023c2:    f7fefd43    ..C.    BL       flash_nodec_config ; 0x8000e4c
        0x080023c6:    f64770fc    G..p    MOV      r0,#0x7ffc
        0x080023ca:    f6c00000    ....    MOVT     r0,#0x800
        0x080023ce:    6800        .h      LDR      r0,[r0,#0]
        0x080023d0:    3001        .0      ADDS     r0,#1
        0x080023d2:    d012        ..      BEQ      0x80023fa ; sys_status_check + 106
        0x080023d4:    f7ffff82    ....    BL       sys_statu_integritys_check ; 0x80022dc
        0x080023d8:    2800        .(      CMP      r0,#0
        0x080023da:    d04c        L.      BEQ      0x8002476 ; sys_status_check + 230
        0x080023dc:    4601        .F      MOV      r1,r0
        0x080023de:    f6403094    @..0    MOV      r0,#0xb94
        0x080023e2:    f2c20000    ....    MOVT     r0,#0x2000
        0x080023e6:    6800        .h      LDR      r0,[r0,#0]
        0x080023e8:    2804        .(      CMP      r0,#4
        0x080023ea:    bfa4        ..      ITT      GE
        0x080023ec:    a03d        =.      ADRGE    r0,{pc}+0xf8 ; 0x80024e4
        0x080023ee:    f7fef90f    ....    BLGE     co_printf ; 0x8000610
        0x080023f2:    f06f0003    o...    MVN      r0,#3
        0x080023f6:    b004        ..      ADD      sp,sp,#0x10
        0x080023f8:    bd80        ..      POP      {r7,pc}
        0x080023fa:    f000fa95    ....    BL       sys_status_init ; 0x8002928
        0x080023fe:    2800        .(      CMP      r0,#0
        0x08002400:    bf1e        ..      ITTT     NE
        0x08002402:    f04f30ff    O..0    MOVNE    r0,#0xffffffff
        0x08002406:    b004        ..      ADDNE    sp,sp,#0x10
        0x08002408:    bd80        ..      POPNE    {r7,pc}
        0x0800240a:    2001        .       MOVS     r0,#1
        0x0800240c:    9000        ..      STR      r0,[sp,#0]
        0x0800240e:    9003        ..      STR      r0,[sp,#0xc]
        0x08002410:    2000        .       MOVS     r0,#0
        0x08002412:    9002        ..      STR      r0,[sp,#8]
        0x08002414:    aa02        ..      ADD      r2,sp,#8
        0x08002416:    2007        .       MOVS     r0,#7
        0x08002418:    2104        .!      MOVS     r1,#4
        0x0800241a:    f000f9d7    ....    BL       sys_status_get ; 0x80027cc
        0x0800241e:    3001        .0      ADDS     r0,#1
        0x08002420:    2802        .(      CMP      r0,#2
        0x08002422:    d20b        ..      BCS      0x800243c ; sys_status_check + 172
        0x08002424:    b110        ..      CBZ      r0,0x800242c ; sys_status_check + 156
        0x08002426:    9802        ..      LDR      r0,[sp,#8]
        0x08002428:    b960        `.      CBNZ     r0,0x8002444 ; sys_status_check + 180
        0x0800242a:    e001        ..      B        0x8002430 ; sys_status_check + 160
        0x0800242c:    2000        .       MOVS     r0,#0
        0x0800242e:    9002        ..      STR      r0,[sp,#8]
        0x08002430:    aa03        ..      ADD      r2,sp,#0xc
        0x08002432:    2007        .       MOVS     r0,#7
        0x08002434:    2104        .!      MOVS     r1,#4
        0x08002436:    f000fad5    ....    BL       sys_status_internal_set ; 0x80029e4
        0x0800243a:    b118        ..      CBZ      r0,0x8002444 ; sys_status_check + 180
        0x0800243c:    f06f0001    o...    MVN      r0,#1
        0x08002440:    b004        ..      ADD      sp,sp,#0x10
        0x08002442:    bd80        ..      POP      {r7,pc}
        0x08002444:    f04f30cd    O..0    MOV      r0,#0xcdcdcdcd
        0x08002448:    9000        ..      STR      r0,[sp,#0]
        0x0800244a:    4669        iF      MOV      r1,sp
        0x0800244c:    f64770fc    G..p    MOV      r0,#0x7ffc
        0x08002450:    2204        ."      MOVS     r2,#4
        0x08002452:    f7fefec9    ....    BL       flash_write ; 0x80011e8
        0x08002456:    2800        .(      CMP      r0,#0
        0x08002458:    bf1e        ..      ITTT     NE
        0x0800245a:    f06f0002    o...    MVNNE    r0,#2
        0x0800245e:    b004        ..      ADDNE    sp,sp,#0x10
        0x08002460:    bd80        ..      POPNE    {r7,pc}
        0x08002462:    f6403094    @..0    MOV      r0,#0xb94
        0x08002466:    f2c20000    ....    MOVT     r0,#0x2000
        0x0800246a:    6800        .h      LDR      r0,[r0,#0]
        0x0800246c:    2804        .(      CMP      r0,#4
        0x0800246e:    bfa4        ..      ITT      GE
        0x08002470:    a026        &.      ADRGE    r0,{pc}+0x9c ; 0x800250c
        0x08002472:    f7fef8cd    ....    BLGE     co_printf ; 0x8000610
        0x08002476:    f10d0207    ....    ADD      r2,sp,#7
        0x0800247a:    2002        .       MOVS     r0,#2
        0x0800247c:    2101        .!      MOVS     r1,#1
        0x0800247e:    f000f9a5    ....    BL       sys_status_get ; 0x80027cc
        0x08002482:    2800        .(      CMP      r0,#0
        0x08002484:    db07        ..      BLT      0x8002496 ; sys_status_check + 262
        0x08002486:    f89d0007    ....    LDRB     r0,[sp,#7]
        0x0800248a:    f6403194    @..1    MOV      r1,#0xb94
        0x0800248e:    f2c20100    ....    MOVT     r1,#0x2000
        0x08002492:    6008        .`      STR      r0,[r1,#0]
        0x08002494:    e004        ..      B        0x80024a0 ; sys_status_check + 272
        0x08002496:    f6403094    @..0    MOV      r0,#0xb94
        0x0800249a:    f2c20000    ....    MOVT     r0,#0x2000
        0x0800249e:    6800        .h      LDR      r0,[r0,#0]
        0x080024a0:    2804        .(      CMP      r0,#4
        0x080024a2:    bfa4        ..      ITT      GE
        0x080024a4:    a020         .      ADRGE    r0,{pc}+0x84 ; 0x8002528
        0x080024a6:    f7fef8b3    ....    BLGE     co_printf ; 0x8000610
        0x080024aa:    f10d0207    ....    ADD      r2,sp,#7
        0x080024ae:    2001        .       MOVS     r0,#1
        0x080024b0:    2101        .!      MOVS     r1,#1
        0x080024b2:    f000f98b    ....    BL       sys_status_get ; 0x80027cc
        0x080024b6:    2800        .(      CMP      r0,#0
        0x080024b8:    db08        ..      BLT      0x80024cc ; sys_status_check + 316
        0x080024ba:    f89d0007    ....    LDRB     r0,[sp,#7]
        0x080024be:    b140        @.      CBZ      r0,0x80024d2 ; sys_status_check + 322
        0x080024c0:    f6403090    @..0    MOVW     r0,#0xb90
        0x080024c4:    f2c20000    ....    MOVT     r0,#0x2000
        0x080024c8:    2101        .!      MOVS     r1,#1
        0x080024ca:    6001        .`      STR      r1,[r0,#0]
        0x080024cc:    2000        .       MOVS     r0,#0
        0x080024ce:    b004        ..      ADD      sp,sp,#0x10
        0x080024d0:    bd80        ..      POP      {r7,pc}
        0x080024d2:    f6403190    @..1    MOVW     r1,#0xb90
        0x080024d6:    f2c20100    ....    MOVT     r1,#0x2000
        0x080024da:    2000        .       MOVS     r0,#0
        0x080024dc:    6008        .`      STR      r0,[r1,#0]
        0x080024de:    b004        ..      ADD      sp,sp,#0x10
        0x080024e0:    bd80        ..      POP      {r7,pc}
        0x080024e2:    bf00        ..      NOP      
    $d.23
        0x080024e4:    4f464e49    INFO    DCD    1330007625
        0x080024e8:    7953203a    : Sy    DCD    2035490874
        0x080024ec:    74732073    s st    DCD    1953702003
        0x080024f0:    73757461    atus    DCD    1937077345
        0x080024f4:    65686320     che    DCD    1701339936
        0x080024f8:    66206b63    ck f    DCD    1713400675
        0x080024fc:    656c6961    aile    DCD    1701603681
        0x08002500:    25282064    d (%    DCD    623386724
        0x08002504:    0d2e2964    d)..    DCD    221129060
        0x08002508:    0000000a    ....    DCD    10
        0x0800250c:    4f464e49    INFO    DCD    1330007625
        0x08002510:    7953203a    : Sy    DCD    2035490874
        0x08002514:    74732073    s st    DCD    1953702003
        0x08002518:    73757461    atus    DCD    1937077345
        0x0800251c:    696e6920     ini    DCD    1768843552
        0x08002520:    4b4f2074    t OK    DCD    1263476852
        0x08002524:    000a0d2e    ....    DCD    658734
        0x08002528:    4f464e49    INFO    DCD    1330007625
        0x0800252c:    7953203a    : Sy    DCD    2035490874
        0x08002530:    74732073    s st    DCD    1953702003
        0x08002534:    73757461    atus    DCD    1937077345
        0x08002538:    65686320     che    DCD    1701339936
        0x0800253c:    64656b63    cked    DCD    1684368227
        0x08002540:    2e4b4f20     OK.    DCD    776687392
        0x08002544:    00000a0d    ....    DCD    2573
    $t.3
    sys_status_crypt
        0x08002548:    e92d41f0    -..A    PUSH     {r4-r8,lr}
        0x0800254c:    b094        ..      SUB      sp,sp,#0x50
        0x0800254e:    2a00        .*      CMP      r2,#0
        0x08002550:    f04f35ff    O..5    MOV      r5,#0xffffffff
        0x08002554:    d051        Q.      BEQ      0x80025fa ; sys_status_crypt + 178
        0x08002556:    4617        .F      MOV      r7,r2
        0x08002558:    4604        .F      MOV      r4,r0
        0x0800255a:    f012000f    ....    ANDS     r0,r2,#0xf
        0x0800255e:    d14c        L.      BNE      0x80025fa ; sys_status_crypt + 178
        0x08002560:    f2465064    F.dP    MOV      r0,#0x6564
        0x08002564:    f6c61076    ..v.    MOVT     r0,#0x6976
        0x08002568:    9009        ..      STR      r0,[sp,#0x24]
        0x0800256a:    f6461067    F.g.    MOV      r0,#0x6967
        0x0800256e:    f2c61067    ..g.    MOVT     r0,#0x6167
        0x08002572:    9008        ..      STR      r0,[sp,#0x20]
        0x08002574:    f6471073    G.s.    MOV      r0,#0x7973
        0x08002578:    f6c57073    ..sp    MOVT     r0,#0x5f73
        0x0800257c:    9007        ..      STR      r0,[sp,#0x1c]
        0x0800257e:    f2465063    F.cP    MOV      r0,#0x6563
        0x08002582:    900a        ..      STR      r0,[sp,#0x28]
        0x08002584:    a807        ..      ADD      r0,sp,#0x1c
        0x08002586:    460e        .F      MOV      r6,r1
        0x08002588:    2110        .!      MOVS     r1,#0x10
        0x0800258a:    4602        .F      MOV      r2,r0
        0x0800258c:    4698        .F      MOV      r8,r3
        0x0800258e:    f000fe93    ....    BL       $Ven$TT$L$$mbedtls_md5_ret ; 0x80032b8
        0x08002592:    a80b        ..      ADD      r0,sp,#0x2c
        0x08002594:    f000fe95    ....    BL       $Ven$TT$L$$mbedtls_aes_init ; 0x80032c2
        0x08002598:    a80b        ..      ADD      r0,sp,#0x2c
        0x0800259a:    a907        ..      ADD      r1,sp,#0x1c
        0x0800259c:    2280        ."      MOVS     r2,#0x80
        0x0800259e:    2c01        .,      CMP      r4,#1
        0x080025a0:    d102        ..      BNE      0x80025a8 ; sys_status_crypt + 96
        0x080025a2:    f000fec5    ....    BL       $Ven$TT$L$$mbedtls_aes_setkey_enc ; 0x8003330
        0x080025a6:    e001        ..      B        0x80025ac ; sys_status_crypt + 100
        0x080025a8:    f000fe90    ....    BL       $Ven$TT$L$$mbedtls_aes_setkey_dec ; 0x80032cc
        0x080025ac:    a80b        ..      ADD      r0,sp,#0x2c
        0x080025ae:    4621        !F      MOV      r1,r4
        0x080025b0:    4632        2F      MOV      r2,r6
        0x080025b2:    4643        CF      MOV      r3,r8
        0x080025b4:    f000fe8f    ....    BL       $Ven$TT$L$$mbedtls_aes_crypt_ecb ; 0x80032d6
        0x080025b8:    4605        .F      MOV      r5,r0
        0x080025ba:    b9b0        ..      CBNZ     r0,0x80025ea ; sys_status_crypt + 162
        0x080025bc:    f1b70210    ....    SUBS     r2,r7,#0x10
        0x080025c0:    d012        ..      BEQ      0x80025e8 ; sys_status_crypt + 160
        0x080025c2:    f1060010    ....    ADD      r0,r6,#0x10
        0x080025c6:    f04f315a    O.Z1    MOV      r1,#0x5a5a5a5a
        0x080025ca:    e9cd1105    ....    STRD     r1,r1,[sp,#0x14]
        0x080025ce:    e9cd1103    ....    STRD     r1,r1,[sp,#0xc]
        0x080025d2:    f1080710    ....    ADD      r7,r8,#0x10
        0x080025d6:    9000        ..      STR      r0,[sp,#0]
        0x080025d8:    a80b        ..      ADD      r0,sp,#0x2c
        0x080025da:    ab03        ..      ADD      r3,sp,#0xc
        0x080025dc:    4621        !F      MOV      r1,r4
        0x080025de:    9701        ..      STR      r7,[sp,#4]
        0x080025e0:    f000feab    ....    BL       $Ven$TT$L$$mbedtls_aes_crypt_cbc ; 0x800333a
        0x080025e4:    4605        .F      MOV      r5,r0
        0x080025e6:    e000        ..      B        0x80025ea ; sys_status_crypt + 162
        0x080025e8:    2500        .%      MOVS     r5,#0
        0x080025ea:    2000        .       MOVS     r0,#0
        0x080025ec:    e9cd0009    ....    STRD     r0,r0,[sp,#0x24]
        0x080025f0:    e9cd0007    ....    STRD     r0,r0,[sp,#0x1c]
        0x080025f4:    a80b        ..      ADD      r0,sp,#0x2c
        0x080025f6:    f000fe73    ..s.    BL       $Ven$TT$L$$mbedtls_aes_free ; 0x80032e0
        0x080025fa:    4628        (F      MOV      r0,r5
        0x080025fc:    b014        ..      ADD      sp,sp,#0x50
        0x080025fe:    e8bd81f0    ....    POP      {r4-r8,pc}
        0x08002602:    0000        ..      MOVS     r0,r0
    sys_status_dump
        0x08002604:    e92d41f0    -..A    PUSH     {r4-r8,lr}
        0x08002608:    b092        ..      SUB      sp,sp,#0x48
        0x0800260a:    f44f4500    O..E    MOV      r5,#0x8000
        0x0800260e:    2800        .(      CMP      r0,#0
        0x08002610:    bf08        ..      IT       EQ
        0x08002612:    f44f4510    O..E    MOVEQ    r5,#0x9000
        0x08002616:    a050        P.      ADR      r0,{pc}+0x142 ; 0x8002758
        0x08002618:    a453        S.      ADR      r4,{pc}+0x150 ; 0x8002768
        0x0800261a:    bf08        ..      IT       EQ
        0x0800261c:    4604        .F      MOVEQ    r4,r0
        0x0800261e:    a901        ..      ADD      r1,sp,#4
        0x08002620:    4628        (F      MOV      r0,r5
        0x08002622:    2210        ."      MOVS     r2,#0x10
        0x08002624:    f7fefb26    ..&.    BL       flash_indirect_read ; 0x8000c74
        0x08002628:    4607        .F      MOV      r7,r0
        0x0800262a:    bb88        ..      CBNZ     r0,0x8002690 ; sys_status_dump + 140
        0x0800262c:    f2465064    F.dP    MOV      r0,#0x6564
        0x08002630:    f6c61076    ..v.    MOVT     r0,#0x6976
        0x08002634:    9007        ..      STR      r0,[sp,#0x1c]
        0x08002636:    f6461067    F.g.    MOV      r0,#0x6967
        0x0800263a:    f2c61067    ..g.    MOVT     r0,#0x6167
        0x0800263e:    9006        ..      STR      r0,[sp,#0x18]
        0x08002640:    f6471073    G.s.    MOV      r0,#0x7973
        0x08002644:    f6c57073    ..sp    MOVT     r0,#0x5f73
        0x08002648:    9005        ..      STR      r0,[sp,#0x14]
        0x0800264a:    f2465063    F.cP    MOV      r0,#0x6563
        0x0800264e:    ae05        ..      ADD      r6,sp,#0x14
        0x08002650:    9008        ..      STR      r0,[sp,#0x20]
        0x08002652:    4630        0F      MOV      r0,r6
        0x08002654:    2110        .!      MOVS     r1,#0x10
        0x08002656:    4632        2F      MOV      r2,r6
        0x08002658:    f000fe2e    ....    BL       $Ven$TT$L$$mbedtls_md5_ret ; 0x80032b8
        0x0800265c:    f10d0824    ..$.    ADD      r8,sp,#0x24
        0x08002660:    4640        @F      MOV      r0,r8
        0x08002662:    f000fe2e    ....    BL       $Ven$TT$L$$mbedtls_aes_init ; 0x80032c2
        0x08002666:    4640        @F      MOV      r0,r8
        0x08002668:    4631        1F      MOV      r1,r6
        0x0800266a:    2280        ."      MOVS     r2,#0x80
        0x0800266c:    f000fe2e    ....    BL       $Ven$TT$L$$mbedtls_aes_setkey_dec ; 0x80032cc
        0x08002670:    aa01        ..      ADD      r2,sp,#4
        0x08002672:    4640        @F      MOV      r0,r8
        0x08002674:    2100        .!      MOVS     r1,#0
        0x08002676:    4613        .F      MOV      r3,r2
        0x08002678:    2600        .&      MOVS     r6,#0
        0x0800267a:    f000fe2c    ..,.    BL       $Ven$TT$L$$mbedtls_aes_crypt_ecb ; 0x80032d6
        0x0800267e:    4607        .F      MOV      r7,r0
        0x08002680:    4640        @F      MOV      r0,r8
        0x08002682:    e9cd6607    ...f    STRD     r6,r6,[sp,#0x1c]
        0x08002686:    e9cd6605    ...f    STRD     r6,r6,[sp,#0x14]
        0x0800268a:    f000fe29    ..).    BL       $Ven$TT$L$$mbedtls_aes_free ; 0x80032e0
        0x0800268e:    b177        w.      CBZ      r7,0x80026ae ; sys_status_dump + 170
        0x08002690:    b157        W.      CBZ      r7,0x80026a8 ; sys_status_dump + 164
        0x08002692:    f6403094    @..0    MOV      r0,#0xb94
        0x08002696:    f2c20000    ....    MOVT     r0,#0x2000
        0x0800269a:    6800        .h      LDR      r0,[r0,#0]
        0x0800269c:    2803        .(      CMP      r0,#3
        0x0800269e:    db03        ..      BLT      0x80026a8 ; sys_status_dump + 164
        0x080026a0:    a041        A.      ADR      r0,{pc}+0x108 ; 0x80027a8
        0x080026a2:    4639        9F      MOV      r1,r7
        0x080026a4:    f7fdffb4    ....    BL       co_printf ; 0x8000610
        0x080026a8:    b012        ..      ADD      sp,sp,#0x48
        0x080026aa:    e8bd81f0    ....    POP      {r4-r8,pc}
        0x080026ae:    9e01        ..      LDR      r6,[sp,#4]
        0x080026b0:    f5b65f80    ..._    CMP      r6,#0x1000
        0x080026b4:    d84b        K.      BHI      0x800274e ; sys_status_dump + 330
        0x080026b6:    9803        ..      LDR      r0,[sp,#0xc]
        0x080026b8:    f2427150    B.Pq    MOV      r1,#0x2750
        0x080026bc:    f6c11134    ..4.    MOVT     r1,#0x1934
        0x080026c0:    4288        .B      CMP      r0,r1
        0x080026c2:    d144        D.      BNE      0x800274e ; sys_status_dump + 330
        0x080026c4:    f1060010    ....    ADD      r0,r6,#0x10
        0x080026c8:    0731        1.      LSLS     r1,r6,#28
        0x080026ca:    bf18        ..      IT       NE
        0x080026cc:    f020060f     ...    BICNE    r6,r0,#0xf
        0x080026d0:    4630        0F      MOV      r0,r6
        0x080026d2:    2101        .!      MOVS     r1,#1
        0x080026d4:    f000fe1d    ....    BL       $Ven$TT$L$$mbedtls_calloc ; 0x8003312
        0x080026d8:    2800        .(      CMP      r0,#0
        0x080026da:    d0e5        ..      BEQ      0x80026a8 ; sys_status_dump + 164
        0x080026dc:    4680        .F      MOV      r8,r0
        0x080026de:    4628        (F      MOV      r0,r5
        0x080026e0:    4641        AF      MOV      r1,r8
        0x080026e2:    4632        2F      MOV      r2,r6
        0x080026e4:    f7fefac6    ....    BL       flash_indirect_read ; 0x8000c74
        0x080026e8:    4607        .F      MOV      r7,r0
        0x080026ea:    bb50        P.      CBNZ     r0,0x8002742 ; sys_status_dump + 318
        0x080026ec:    2000        .       MOVS     r0,#0
        0x080026ee:    4641        AF      MOV      r1,r8
        0x080026f0:    4632        2F      MOV      r2,r6
        0x080026f2:    4643        CF      MOV      r3,r8
        0x080026f4:    f7ffff28    ..(.    BL       sys_status_crypt ; 0x8002548
        0x080026f8:    4607        .F      MOV      r7,r0
        0x080026fa:    bb10        ..      CBNZ     r0,0x8002742 ; sys_status_dump + 318
        0x080026fc:    a01e        ..      ADR      r0,{pc}+0x7c ; 0x8002778
        0x080026fe:    f7fdff87    ....    BL       co_printf ; 0x8000610
        0x08002702:    a024        $.      ADR      r0,{pc}+0x92 ; 0x8002794
        0x08002704:    4621        !F      MOV      r1,r4
        0x08002706:    f7fdff83    ....    BL       co_printf ; 0x8000610
        0x0800270a:    9801        ..      LDR      r0,[sp,#4]
        0x0800270c:    b190        ..      CBZ      r0,0x8002734 ; sys_status_dump + 304
        0x0800270e:    2600        .&      MOVS     r6,#0
        0x08002710:    a422        ".      ADR      r4,{pc}+0x8c ; 0x800279c
        0x08002712:    a523        #.      ADR      r5,{pc}+0x8e ; 0x80027a0
        0x08002714:    b12e        ..      CBZ      r6,0x8002722 ; sys_status_dump + 286
        0x08002716:    f016000f    ....    ANDS     r0,r6,#0xf
        0x0800271a:    d102        ..      BNE      0x8002722 ; sys_status_dump + 286
        0x0800271c:    4620         F      MOV      r0,r4
        0x0800271e:    f7fdff77    ..w.    BL       co_printf ; 0x8000610
        0x08002722:    f8181006    ....    LDRB     r1,[r8,r6]
        0x08002726:    4628        (F      MOV      r0,r5
        0x08002728:    f7fdff72    ..r.    BL       co_printf ; 0x8000610
        0x0800272c:    9801        ..      LDR      r0,[sp,#4]
        0x0800272e:    3601        .6      ADDS     r6,#1
        0x08002730:    4286        .B      CMP      r6,r0
        0x08002732:    d3ef        ..      BCC      0x8002714 ; sys_status_dump + 272
        0x08002734:    f24330c9    C..0    MOV      r0,#0x33c9
        0x08002738:    f6c00000    ....    MOVT     r0,#0x800
        0x0800273c:    f7fdff68    ..h.    BL       co_printf ; 0x8000610
        0x08002740:    2700        .'      MOVS     r7,#0
        0x08002742:    4640        @F      MOV      r0,r8
        0x08002744:    f000fdea    ....    BL       $Ven$TT$L$$mbedtls_free ; 0x800331c
        0x08002748:    2f00        ./      CMP      r7,#0
        0x0800274a:    d1a2        ..      BNE      0x8002692 ; sys_status_dump + 142
        0x0800274c:    e7ac        ..      B        0x80026a8 ; sys_status_dump + 164
        0x0800274e:    f06f07fe    o...    MVN      r7,#0xfe
        0x08002752:    2f00        ./      CMP      r7,#0
        0x08002754:    d19d        ..      BNE      0x8002692 ; sys_status_dump + 142
        0x08002756:    e7a7        ..      B        0x80026a8 ; sys_status_dump + 164
    $d.21
        0x08002758:    74617453    Stat    DCD    1952543827
        0x0800275c:    50207375    us P    DCD    1344303989
        0x08002760:    3a474e4f    ONG:    DCD    977751631
        0x08002764:    00000a0d    ....    DCD    2573
        0x08002768:    74617453    Stat    DCD    1952543827
        0x0800276c:    50207375    us P    DCD    1344303989
        0x08002770:    3a474e49    ING:    DCD    977751625
        0x08002774:    00000a0d    ....    DCD    2573
        0x08002778:    2d2d0a0d    ..--    DCD    757926413
        0x0800277c:    2d2d2d2d    ----    DCD    757935405
        0x08002780:    2d2d2d2d    ----    DCD    757935405
        0x08002784:    2d2d2d2d    ----    DCD    757935405
        0x08002788:    2d2d2d2d    ----    DCD    757935405
        0x0800278c:    2d2d2d2d    ----    DCD    757935405
        0x08002790:    00000a0d    ....    DCD    2573
        0x08002794:    0a0d7325    %s..    DCD    168653605
        0x08002798:    00000009    ....    DCD    9
        0x0800279c:    00090a0d    ....    DCD    592397
        0x080027a0:    78323025    %02x    DCD    2016555045
        0x080027a4:    00000020     ...    DCD    32
        0x080027a8:    4e524157    WARN    DCD    1314013527
        0x080027ac:    7453203a    : St    DCD    1951604794
        0x080027b0:    73757461    atus    DCD    1937077345
        0x080027b4:    6d756420     dum    DCD    1836409888
        0x080027b8:    72652070    p er    DCD    1919230064
        0x080027bc:    28726f72    ror(    DCD    678588274
        0x080027c0:    78257830    0x%x    DCD    2015721520
        0x080027c4:    0a0d2e29    )...    DCD    168635945
        0x080027c8:    00000000    ....    DCD    0
    $t.10
    sys_status_get
        0x080027cc:    e92d47f0    -..G    PUSH     {r4-r10,lr}
        0x080027d0:    b086        ..      SUB      sp,sp,#0x18
        0x080027d2:    460d        .F      MOV      r5,r1
        0x080027d4:    4681        .F      MOV      r9,r0
        0x080027d6:    a802        ..      ADD      r0,sp,#8
        0x080027d8:    a901        ..      ADD      r1,sp,#4
        0x080027da:    4614        .F      MOV      r4,r2
        0x080027dc:    f7fdfd9e    ....    BL       active_header_get ; 0x800031c
        0x080027e0:    4606        .F      MOV      r6,r0
        0x080027e2:    bb78        x.      CBNZ     r0,0x8002844 ; sys_status_get + 120
        0x080027e4:    9f02        ..      LDR      r7,[sp,#8]
        0x080027e6:    f5b75f80    ..._    CMP      r7,#0x1000
        0x080027ea:    d901        ..      BLS      0x80027f0 ; sys_status_get + 36
        0x080027ec:    2604        .&      MOVS     r6,#4
        0x080027ee:    e029        ).      B        0x8002844 ; sys_status_get + 120
        0x080027f0:    9804        ..      LDR      r0,[sp,#0x10]
        0x080027f2:    f2427150    B.Pq    MOV      r1,#0x2750
        0x080027f6:    f6c11134    ..4.    MOVT     r1,#0x1934
        0x080027fa:    4288        .B      CMP      r0,r1
        0x080027fc:    d11f        ..      BNE      0x800283e ; sys_status_get + 114
        0x080027fe:    f1070010    ....    ADD      r0,r7,#0x10
        0x08002802:    0739        9.      LSLS     r1,r7,#28
        0x08002804:    46ba        .F      MOV      r10,r7
        0x08002806:    bf18        ..      IT       NE
        0x08002808:    f0200a0f     ...    BICNE    r10,r0,#0xf
        0x0800280c:    4650        PF      MOV      r0,r10
        0x0800280e:    2101        .!      MOVS     r1,#1
        0x08002810:    f000fd7f    ....    BL       $Ven$TT$L$$mbedtls_calloc ; 0x8003312
        0x08002814:    b1a8        ..      CBZ      r0,0x8002842 ; sys_status_get + 118
        0x08002816:    4680        .F      MOV      r8,r0
        0x08002818:    9801        ..      LDR      r0,[sp,#4]
        0x0800281a:    4641        AF      MOV      r1,r8
        0x0800281c:    4652        RF      MOV      r2,r10
        0x0800281e:    f7fefa29    ..).    BL       flash_indirect_read ; 0x8000c74
        0x08002822:    4606        .F      MOV      r6,r0
        0x08002824:    b938        8.      CBNZ     r0,0x8002836 ; sys_status_get + 106
        0x08002826:    2000        .       MOVS     r0,#0
        0x08002828:    4641        AF      MOV      r1,r8
        0x0800282a:    4652        RF      MOV      r2,r10
        0x0800282c:    4643        CF      MOV      r3,r8
        0x0800282e:    f7fffe8b    ....    BL       sys_status_crypt ; 0x8002548
        0x08002832:    4606        .F      MOV      r6,r0
        0x08002834:    b308        ..      CBZ      r0,0x800287a ; sys_status_get + 174
        0x08002836:    4640        @F      MOV      r0,r8
        0x08002838:    f000fd70    ..p.    BL       $Ven$TT$L$$mbedtls_free ; 0x800331c
        0x0800283c:    e002        ..      B        0x8002844 ; sys_status_get + 120
        0x0800283e:    2608        .&      MOVS     r6,#8
        0x08002840:    e000        ..      B        0x8002844 ; sys_status_get + 120
        0x08002842:    2600        .&      MOVS     r6,#0
        0x08002844:    4620         F      MOV      r0,r4
        0x08002846:    4629        )F      MOV      r1,r5
        0x08002848:    22ff        ."      MOVS     r2,#0xff
        0x0800284a:    f7fdfcf5    ....    BL       __aeabi_memset ; 0x8000238
        0x0800284e:    f6403094    @..0    MOV      r0,#0xb94
        0x08002852:    f2c20000    ....    MOVT     r0,#0x2000
        0x08002856:    6800        .h      LDR      r0,[r0,#0]
        0x08002858:    2803        .(      CMP      r0,#3
        0x0800285a:    db08        ..      BLT      0x800286e ; sys_status_get + 162
        0x0800285c:    a029        ).      ADR      r0,{pc}+0xa8 ; 0x8002904
        0x0800285e:    f06f0101    o...    MVN      r1,#1
        0x08002862:    4632        2F      MOV      r2,r6
        0x08002864:    f06f0401    o...    MVN      r4,#1
        0x08002868:    f7fdfed2    ....    BL       co_printf ; 0x8000610
        0x0800286c:    e001        ..      B        0x8002872 ; sys_status_get + 166
        0x0800286e:    f06f0401    o...    MVN      r4,#1
        0x08002872:    4620         F      MOV      r0,r4
        0x08002874:    b006        ..      ADD      sp,sp,#0x18
        0x08002876:    e8bd87f0    ....    POP      {r4-r10,pc}
        0x0800287a:    f1b70210    ....    SUBS     r2,r7,#0x10
        0x0800287e:    d035        5.      BEQ      0x80028ec ; sys_status_get + 288
        0x08002880:    f1080010    ....    ADD      r0,r8,#0x10
        0x08002884:    2100        .!      MOVS     r1,#0
        0x08002886:    4603        .F      MOV      r3,r0
        0x08002888:    781f        .x      LDRB     r7,[r3,#0]
        0x0800288a:    454f        OE      CMP      r7,r9
        0x0800288c:    d021        !.      BEQ      0x80028d2 ; sys_status_get + 262
        0x0800288e:    785f        _x      LDRB     r7,[r3,#1]
        0x08002890:    3702        .7      ADDS     r7,#2
        0x08002892:    4439        9D      ADD      r1,r1,r7
        0x08002894:    4291        .B      CMP      r1,r2
        0x08002896:    d229        ).      BCS      0x80028ec ; sys_status_get + 288
        0x08002898:    443b        ;D      ADD      r3,r3,r7
        0x0800289a:    781f        .x      LDRB     r7,[r3,#0]
        0x0800289c:    454f        OE      CMP      r7,r9
        0x0800289e:    d018        ..      BEQ      0x80028d2 ; sys_status_get + 262
        0x080028a0:    785f        _x      LDRB     r7,[r3,#1]
        0x080028a2:    3702        .7      ADDS     r7,#2
        0x080028a4:    4439        9D      ADD      r1,r1,r7
        0x080028a6:    4291        .B      CMP      r1,r2
        0x080028a8:    d220         .      BCS      0x80028ec ; sys_status_get + 288
        0x080028aa:    443b        ;D      ADD      r3,r3,r7
        0x080028ac:    781f        .x      LDRB     r7,[r3,#0]
        0x080028ae:    454f        OE      CMP      r7,r9
        0x080028b0:    d00f        ..      BEQ      0x80028d2 ; sys_status_get + 262
        0x080028b2:    785f        _x      LDRB     r7,[r3,#1]
        0x080028b4:    3702        .7      ADDS     r7,#2
        0x080028b6:    4439        9D      ADD      r1,r1,r7
        0x080028b8:    4291        .B      CMP      r1,r2
        0x080028ba:    d217        ..      BCS      0x80028ec ; sys_status_get + 288
        0x080028bc:    443b        ;D      ADD      r3,r3,r7
        0x080028be:    781f        .x      LDRB     r7,[r3,#0]
        0x080028c0:    454f        OE      CMP      r7,r9
        0x080028c2:    d006        ..      BEQ      0x80028d2 ; sys_status_get + 262
        0x080028c4:    785f        _x      LDRB     r7,[r3,#1]
        0x080028c6:    3702        .7      ADDS     r7,#2
        0x080028c8:    4439        9D      ADD      r1,r1,r7
        0x080028ca:    4291        .B      CMP      r1,r2
        0x080028cc:    443b        ;D      ADD      r3,r3,r7
        0x080028ce:    d3db        ..      BCC      0x8002888 ; sys_status_get + 188
        0x080028d0:    e00c        ..      B        0x80028ec ; sys_status_get + 288
        0x080028d2:    2900        .)      CMP      r1,#0
        0x080028d4:    db0a        ..      BLT      0x80028ec ; sys_status_get + 288
        0x080028d6:    4408        .D      ADD      r0,r0,r1
        0x080028d8:    7842        Bx      LDRB     r2,[r0,#1]
        0x080028da:    1c81        ..      ADDS     r1,r0,#2
        0x080028dc:    4620         F      MOV      r0,r4
        0x080028de:    42aa        .B      CMP      r2,r5
        0x080028e0:    bf88        ..      IT       HI
        0x080028e2:    462a        *F      MOVHI    r2,r5
        0x080028e4:    f7fdfc96    ....    BL       __aeabi_memcpy ; 0x8000214
        0x080028e8:    2400        .$      MOVS     r4,#0
        0x080028ea:    e006        ..      B        0x80028fa ; sys_status_get + 302
        0x080028ec:    4620         F      MOV      r0,r4
        0x080028ee:    4629        )F      MOV      r1,r5
        0x080028f0:    22ff        ."      MOVS     r2,#0xff
        0x080028f2:    f7fdfca1    ....    BL       __aeabi_memset ; 0x8000238
        0x080028f6:    f04f34ff    O..4    MOV      r4,#0xffffffff
        0x080028fa:    4640        @F      MOV      r0,r8
        0x080028fc:    f000fd0e    ....    BL       $Ven$TT$L$$mbedtls_free ; 0x800331c
        0x08002900:    e7b7        ..      B        0x8002872 ; sys_status_get + 166
        0x08002902:    bf00        ..      NOP      
    $d.11
        0x08002904:    4e524157    WARN    DCD    1314013527
        0x08002908:    7453203a    : St    DCD    1951604794
        0x0800290c:    73757461    atus    DCD    1937077345
        0x08002910:    74656720     get    DCD    1952802592
        0x08002914:    69616620     fai    DCD    1767990816
        0x08002918:    2864656c    led(    DCD    677668204
        0x0800291c:    78257830    0x%x    DCD    2015721520
        0x08002920:    2964252c    ,%d)    DCD    694428972
        0x08002924:    000a0d2e    ....    DCD    658734
    $t.2
    sys_status_init
        0x08002928:    b570        p.      PUSH     {r4-r6,lr}
        0x0800292a:    b092        ..      SUB      sp,sp,#0x48
        0x0800292c:    2010        .       MOVS     r0,#0x10
        0x0800292e:    9001        ..      STR      r0,[sp,#4]
        0x08002930:    f2427040    B.@p    MOVW     r0,#0x2740
        0x08002934:    f6c11034    ..4.    MOVT     r0,#0x1934
        0x08002938:    2600        .&      MOVS     r6,#0
        0x0800293a:    f1000110    ....    ADD      r1,r0,#0x10
        0x0800293e:    9602        ..      STR      r6,[sp,#8]
        0x08002940:    e9cd1003    ....    STRD     r1,r0,[sp,#0xc]
        0x08002944:    f2465064    F.dP    MOV      r0,#0x6564
        0x08002948:    f6c61076    ..v.    MOVT     r0,#0x6976
        0x0800294c:    9007        ..      STR      r0,[sp,#0x1c]
        0x0800294e:    f6461067    F.g.    MOV      r0,#0x6967
        0x08002952:    f2c61067    ..g.    MOVT     r0,#0x6167
        0x08002956:    9006        ..      STR      r0,[sp,#0x18]
        0x08002958:    f6471073    G.s.    MOV      r0,#0x7973
        0x0800295c:    f6c57073    ..sp    MOVT     r0,#0x5f73
        0x08002960:    9005        ..      STR      r0,[sp,#0x14]
        0x08002962:    f2465063    F.cP    MOV      r0,#0x6563
        0x08002966:    ac05        ..      ADD      r4,sp,#0x14
        0x08002968:    9008        ..      STR      r0,[sp,#0x20]
        0x0800296a:    4620         F      MOV      r0,r4
        0x0800296c:    2110        .!      MOVS     r1,#0x10
        0x0800296e:    4622        "F      MOV      r2,r4
        0x08002970:    f000fca2    ....    BL       $Ven$TT$L$$mbedtls_md5_ret ; 0x80032b8
        0x08002974:    ad09        ..      ADD      r5,sp,#0x24
        0x08002976:    4628        (F      MOV      r0,r5
        0x08002978:    f000fca3    ....    BL       $Ven$TT$L$$mbedtls_aes_init ; 0x80032c2
        0x0800297c:    4628        (F      MOV      r0,r5
        0x0800297e:    4621        !F      MOV      r1,r4
        0x08002980:    2280        ."      MOVS     r2,#0x80
        0x08002982:    f000fcd5    ....    BL       $Ven$TT$L$$mbedtls_aes_setkey_enc ; 0x8003330
        0x08002986:    aa01        ..      ADD      r2,sp,#4
        0x08002988:    4628        (F      MOV      r0,r5
        0x0800298a:    2101        .!      MOVS     r1,#1
        0x0800298c:    4613        .F      MOV      r3,r2
        0x0800298e:    f000fca2    ....    BL       $Ven$TT$L$$mbedtls_aes_crypt_ecb ; 0x80032d6
        0x08002992:    4604        .F      MOV      r4,r0
        0x08002994:    4628        (F      MOV      r0,r5
        0x08002996:    e9cd6607    ...f    STRD     r6,r6,[sp,#0x1c]
        0x0800299a:    e9cd6605    ...f    STRD     r6,r6,[sp,#0x14]
        0x0800299e:    f000fc9f    ....    BL       $Ven$TT$L$$mbedtls_aes_free ; 0x80032e0
        0x080029a2:    2c00        .,      CMP      r4,#0
        0x080029a4:    bf1e        ..      ITTT     NE
        0x080029a6:    2040        @       MOVNE    r0,#0x40
        0x080029a8:    b012        ..      ADDNE    sp,sp,#0x48
        0x080029aa:    bd70        p.      POPNE    {r4-r6,pc}
        0x080029ac:    f44f4000    O..@    MOV      r0,#0x8000
        0x080029b0:    f44f5100    O..Q    MOV      r1,#0x2000
        0x080029b4:    f7fef868    ..h.    BL       flash_erase ; 0x8000a88
        0x080029b8:    b930        0.      CBNZ     r0,0x80029c8 ; sys_status_init + 160
        0x080029ba:    a901        ..      ADD      r1,sp,#4
        0x080029bc:    f44f4000    O..@    MOV      r0,#0x8000
        0x080029c0:    2210        ."      MOVS     r2,#0x10
        0x080029c2:    f7fefc11    ....    BL       flash_write ; 0x80011e8
        0x080029c6:    b110        ..      CBZ      r0,0x80029ce ; sys_status_init + 166
        0x080029c8:    2001        .       MOVS     r0,#1
        0x080029ca:    b012        ..      ADD      sp,sp,#0x48
        0x080029cc:    bd70        p.      POP      {r4-r6,pc}
        0x080029ce:    a901        ..      ADD      r1,sp,#4
        0x080029d0:    f44f4010    O..@    MOV      r0,#0x9000
        0x080029d4:    2210        ."      MOVS     r2,#0x10
        0x080029d6:    f7fefc07    ....    BL       flash_write ; 0x80011e8
        0x080029da:    2800        .(      CMP      r0,#0
        0x080029dc:    bf18        ..      IT       NE
        0x080029de:    2001        .       MOVNE    r0,#1
        0x080029e0:    b012        ..      ADD      sp,sp,#0x48
        0x080029e2:    bd70        p.      POP      {r4-r6,pc}
    sys_status_internal_set
        0x080029e4:    e92d4ff0    -..O    PUSH     {r4-r11,lr}
        0x080029e8:    b087        ..      SUB      sp,sp,#0x1c
        0x080029ea:    460d        .F      MOV      r5,r1
        0x080029ec:    3901        .9      SUBS     r1,#1
        0x080029ee:    290f        .)      CMP      r1,#0xf
        0x080029f0:    d902        ..      BLS      0x80029f8 ; sys_status_internal_set + 20
        0x080029f2:    f44f7780    O..w    MOV      r7,#0x100
        0x080029f6:    e04b        K.      B        0x8002a90 ; sys_status_internal_set + 172
        0x080029f8:    4604        .F      MOV      r4,r0
        0x080029fa:    f6403094    @..0    MOV      r0,#0xb94
        0x080029fe:    f2c20000    ....    MOVT     r0,#0x2000
        0x08002a02:    6800        .h      LDR      r0,[r0,#0]
        0x08002a04:    4616        .F      MOV      r6,r2
        0x08002a06:    2805        .(      CMP      r0,#5
        0x08002a08:    db03        ..      BLT      0x8002a12 ; sys_status_internal_set + 46
        0x08002a0a:    a081        ..      ADR      r0,{pc}+0x206 ; 0x8002c10
        0x08002a0c:    4621        !F      MOV      r1,r4
        0x08002a0e:    f7fdfdff    ....    BL       co_printf ; 0x8000610
        0x08002a12:    a803        ..      ADD      r0,sp,#0xc
        0x08002a14:    a902        ..      ADD      r1,sp,#8
        0x08002a16:    f7fdfc81    ....    BL       active_header_get ; 0x800031c
        0x08002a1a:    b108        ..      CBZ      r0,0x8002a20 ; sys_status_internal_set + 60
        0x08002a1c:    4607        .F      MOV      r7,r0
        0x08002a1e:    e037        7.      B        0x8002a90 ; sys_status_internal_set + 172
        0x08002a20:    f8ddb00c    ....    LDR      r11,[sp,#0xc]
        0x08002a24:    f5bb5f80    ..._    CMP      r11,#0x1000
        0x08002a28:    d901        ..      BLS      0x8002a2e ; sys_status_internal_set + 74
        0x08002a2a:    2704        .'      MOVS     r7,#4
        0x08002a2c:    e030        0.      B        0x8002a90 ; sys_status_internal_set + 172
        0x08002a2e:    9805        ..      LDR      r0,[sp,#0x14]
        0x08002a30:    f2427150    B.Pq    MOV      r1,#0x2750
        0x08002a34:    f6c11134    ..4.    MOVT     r1,#0x1934
        0x08002a38:    4288        .B      CMP      r0,r1
        0x08002a3a:    d126        &.      BNE      0x8002a8a ; sys_status_internal_set + 166
        0x08002a3c:    f10b0010    ....    ADD      r0,r11,#0x10
        0x08002a40:    46d8        .F      MOV      r8,r11
        0x08002a42:    ea5f710b    _..q    LSLS     r1,r11,#28
        0x08002a46:    bf18        ..      IT       NE
        0x08002a48:    f020080f     ...    BICNE    r8,r0,#0xf
        0x08002a4c:    eb05000b    ....    ADD      r0,r5,r11
        0x08002a50:    f1000a02    ....    ADD      r10,r0,#2
        0x08002a54:    3012        .0      ADDS     r0,r0,#0x12
        0x08002a56:    ea5f710a    _..q    LSLS     r1,r10,#28
        0x08002a5a:    4657        WF      MOV      r7,r10
        0x08002a5c:    bf18        ..      IT       NE
        0x08002a5e:    f020070f     ...    BICNE    r7,r0,#0xf
        0x08002a62:    4638        8F      MOV      r0,r7
        0x08002a64:    2101        .!      MOVS     r1,#1
        0x08002a66:    f000fc54    ..T.    BL       $Ven$TT$L$$mbedtls_calloc ; 0x8003312
        0x08002a6a:    b180        ..      CBZ      r0,0x8002a8e ; sys_status_internal_set + 170
        0x08002a6c:    e9cd7a00    ...z    STRD     r7,r10,[sp,#0]
        0x08002a70:    f8dda008    ....    LDR      r10,[sp,#8]
        0x08002a74:    4681        .F      MOV      r9,r0
        0x08002a76:    4650        PF      MOV      r0,r10
        0x08002a78:    4649        IF      MOV      r1,r9
        0x08002a7a:    4642        BF      MOV      r2,r8
        0x08002a7c:    f7fef8fa    ....    BL       flash_indirect_read ; 0x8000c74
        0x08002a80:    b1b8        ..      CBZ      r0,0x8002ab2 ; sys_status_internal_set + 206
        0x08002a82:    4680        .F      MOV      r8,r0
        0x08002a84:    464d        MF      MOV      r5,r9
        0x08002a86:    2701        .'      MOVS     r7,#1
        0x08002a88:    e01e        ..      B        0x8002ac8 ; sys_status_internal_set + 228
        0x08002a8a:    2708        .'      MOVS     r7,#8
        0x08002a8c:    e000        ..      B        0x8002a90 ; sys_status_internal_set + 172
        0x08002a8e:    2780        .'      MOVS     r7,#0x80
        0x08002a90:    b15f        _.      CBZ      r7,0x8002aaa ; sys_status_internal_set + 198
        0x08002a92:    f6403094    @..0    MOV      r0,#0xb94
        0x08002a96:    f2c20000    ....    MOVT     r0,#0x2000
        0x08002a9a:    6800        .h      LDR      r0,[r0,#0]
        0x08002a9c:    2803        .(      CMP      r0,#3
        0x08002a9e:    db04        ..      BLT      0x8002aaa ; sys_status_internal_set + 198
        0x08002aa0:    a063        c.      ADR      r0,{pc}+0x190 ; 0x8002c30
        0x08002aa2:    4639        9F      MOV      r1,r7
        0x08002aa4:    4642        BF      MOV      r2,r8
        0x08002aa6:    f7fdfdb3    ....    BL       co_printf ; 0x8000610
        0x08002aaa:    4638        8F      MOV      r0,r7
        0x08002aac:    b007        ..      ADD      sp,sp,#0x1c
        0x08002aae:    e8bd8ff0    ....    POP      {r4-r11,pc}
        0x08002ab2:    2000        .       MOVS     r0,#0
        0x08002ab4:    4649        IF      MOV      r1,r9
        0x08002ab6:    4642        BF      MOV      r2,r8
        0x08002ab8:    464b        KF      MOV      r3,r9
        0x08002aba:    4647        GF      MOV      r7,r8
        0x08002abc:    f7fffd44    ..D.    BL       sys_status_crypt ; 0x8002548
        0x08002ac0:    b140        @.      CBZ      r0,0x8002ad4 ; sys_status_internal_set + 240
        0x08002ac2:    4680        .F      MOV      r8,r0
        0x08002ac4:    464d        MF      MOV      r5,r9
        0x08002ac6:    2740        @'      MOVS     r7,#0x40
        0x08002ac8:    4628        (F      MOV      r0,r5
        0x08002aca:    f000fc27    ..'.    BL       $Ven$TT$L$$mbedtls_free ; 0x800331c
        0x08002ace:    2f00        ./      CMP      r7,#0
        0x08002ad0:    d1df        ..      BNE      0x8002a92 ; sys_status_internal_set + 174
        0x08002ad2:    e7ea        ..      B        0x8002aaa ; sys_status_internal_set + 198
        0x08002ad4:    f1bb0110    ....    SUBS     r1,r11,#0x10
        0x08002ad8:    f1090c10    ....    ADD      r12,r9,#0x10
        0x08002adc:    46c8        .F      MOV      r8,r9
        0x08002ade:    d034        4.      BEQ      0x8002b4a ; sys_status_internal_set + 358
        0x08002ae0:    2000        .       MOVS     r0,#0
        0x08002ae2:    4662        bF      MOV      r2,r12
        0x08002ae4:    7813        .x      LDRB     r3,[r2,#0]
        0x08002ae6:    42a3        .B      CMP      r3,r4
        0x08002ae8:    d021        !.      BEQ      0x8002b2e ; sys_status_internal_set + 330
        0x08002aea:    7853        Sx      LDRB     r3,[r2,#1]
        0x08002aec:    3302        .3      ADDS     r3,#2
        0x08002aee:    4418        .D      ADD      r0,r0,r3
        0x08002af0:    4288        .B      CMP      r0,r1
        0x08002af2:    d22a        *.      BCS      0x8002b4a ; sys_status_internal_set + 358
        0x08002af4:    441a        .D      ADD      r2,r2,r3
        0x08002af6:    7813        .x      LDRB     r3,[r2,#0]
        0x08002af8:    42a3        .B      CMP      r3,r4
        0x08002afa:    d018        ..      BEQ      0x8002b2e ; sys_status_internal_set + 330
        0x08002afc:    7853        Sx      LDRB     r3,[r2,#1]
        0x08002afe:    3302        .3      ADDS     r3,#2
        0x08002b00:    4418        .D      ADD      r0,r0,r3
        0x08002b02:    4288        .B      CMP      r0,r1
        0x08002b04:    d221        !.      BCS      0x8002b4a ; sys_status_internal_set + 358
        0x08002b06:    441a        .D      ADD      r2,r2,r3
        0x08002b08:    7813        .x      LDRB     r3,[r2,#0]
        0x08002b0a:    42a3        .B      CMP      r3,r4
        0x08002b0c:    d00f        ..      BEQ      0x8002b2e ; sys_status_internal_set + 330
        0x08002b0e:    7853        Sx      LDRB     r3,[r2,#1]
        0x08002b10:    3302        .3      ADDS     r3,#2
        0x08002b12:    4418        .D      ADD      r0,r0,r3
        0x08002b14:    4288        .B      CMP      r0,r1
        0x08002b16:    d218        ..      BCS      0x8002b4a ; sys_status_internal_set + 358
        0x08002b18:    441a        .D      ADD      r2,r2,r3
        0x08002b1a:    7813        .x      LDRB     r3,[r2,#0]
        0x08002b1c:    42a3        .B      CMP      r3,r4
        0x08002b1e:    d006        ..      BEQ      0x8002b2e ; sys_status_internal_set + 330
        0x08002b20:    7853        Sx      LDRB     r3,[r2,#1]
        0x08002b22:    3302        .3      ADDS     r3,#2
        0x08002b24:    4418        .D      ADD      r0,r0,r3
        0x08002b26:    4288        .B      CMP      r0,r1
        0x08002b28:    441a        .D      ADD      r2,r2,r3
        0x08002b2a:    d3db        ..      BCC      0x8002ae4 ; sys_status_internal_set + 256
        0x08002b2c:    e00d        ..      B        0x8002b4a ; sys_status_internal_set + 358
        0x08002b2e:    2800        .(      CMP      r0,#0
        0x08002b30:    db0b        ..      BLT      0x8002b4a ; sys_status_internal_set + 358
        0x08002b32:    4460        `D      ADD      r0,r0,r12
        0x08002b34:    7841        Ax      LDRB     r1,[r0,#1]
        0x08002b36:    42a9        .B      CMP      r1,r5
        0x08002b38:    d15a        Z.      BNE      0x8002bf0 ; sys_status_internal_set + 524
        0x08002b3a:    3002        .0      ADDS     r0,#2
        0x08002b3c:    4631        1F      MOV      r1,r6
        0x08002b3e:    462a        *F      MOV      r2,r5
        0x08002b40:    46e1        .F      MOV      r9,r12
        0x08002b42:    f7fdfb67    ..g.    BL       __aeabi_memcpy ; 0x8000214
        0x08002b46:    463c        <F      MOV      r4,r7
        0x08002b48:    e01e        ..      B        0x8002b88 ; sys_status_internal_set + 420
        0x08002b4a:    9f01        ..      LDR      r7,[sp,#4]
        0x08002b4c:    f5b75f80    ..._    CMP      r7,#0x1000
        0x08002b50:    d904        ..      BLS      0x8002b5c ; sys_status_internal_set + 376
        0x08002b52:    4645        EF      MOV      r5,r8
        0x08002b54:    2704        .'      MOVS     r7,#4
        0x08002b56:    f04f0800    O...    MOV      r8,#0
        0x08002b5a:    e7b5        ..      B        0x8002ac8 ; sys_status_internal_set + 228
        0x08002b5c:    eb08000b    ....    ADD      r0,r8,r11
        0x08002b60:    f808400b    ...@    STRB     r4,[r8,r11]
        0x08002b64:    1c84        ..      ADDS     r4,r0,#2
        0x08002b66:    7045        Ep      STRB     r5,[r0,#1]
        0x08002b68:    4620         F      MOV      r0,r4
        0x08002b6a:    4631        1F      MOV      r1,r6
        0x08002b6c:    462a        *F      MOV      r2,r5
        0x08002b6e:    46e1        .F      MOV      r9,r12
        0x08002b70:    f7fdfb50    ..P.    BL       __aeabi_memcpy ; 0x8000214
        0x08002b74:    1960        `.      ADDS     r0,r4,r5
        0x08002b76:    9c00        ..      LDR      r4,[sp,#0]
        0x08002b78:    22ff        ."      MOVS     r2,#0xff
        0x08002b7a:    eb040108    ....    ADD      r1,r4,r8
        0x08002b7e:    1a09        ..      SUBS     r1,r1,r0
        0x08002b80:    f7fdfb5a    ..Z.    BL       __aeabi_memset ; 0x8000238
        0x08002b84:    46bb        .F      MOV      r11,r7
        0x08002b86:    9703        ..      STR      r7,[sp,#0xc]
        0x08002b88:    9804        ..      LDR      r0,[sp,#0x10]
        0x08002b8a:    f06f0101    o...    MVN      r1,#1
        0x08002b8e:    1a41        A.      SUBS     r1,r0,r1
        0x08002b90:    bf18        ..      IT       NE
        0x08002b92:    1c41        A.      ADDNE    r1,r0,#1
        0x08002b94:    2000        .       MOVS     r0,#0
        0x08002b96:    e9c8b100    ....    STRD     r11,r1,[r8,#0]
        0x08002b9a:    f8c8000c    ....    STR      r0,[r8,#0xc]
        0x08002b9e:    4640        @F      MOV      r0,r8
        0x08002ba0:    4659        YF      MOV      r1,r11
        0x08002ba2:    f7fdfcef    ....    BL       checksum_cal ; 0x8000584
        0x08002ba6:    f8c8000c    ....    STR      r0,[r8,#0xc]
        0x08002baa:    2001        .       MOVS     r0,#1
        0x08002bac:    4641        AF      MOV      r1,r8
        0x08002bae:    4622        "F      MOV      r2,r4
        0x08002bb0:    4643        CF      MOV      r3,r8
        0x08002bb2:    4645        EF      MOV      r5,r8
        0x08002bb4:    f7fffcc8    ....    BL       sys_status_crypt ; 0x8002548
        0x08002bb8:    b108        ..      CBZ      r0,0x8002bbe ; sys_status_internal_set + 474
        0x08002bba:    4680        .F      MOV      r8,r0
        0x08002bbc:    e783        ..      B        0x8002ac6 ; sys_status_internal_set + 226
        0x08002bbe:    4626        &F      MOV      r6,r4
        0x08002bc0:    f44f4400    O..D    MOV      r4,#0x8000
        0x08002bc4:    f5ba4f00    ...O    CMP      r10,#0x8000
        0x08002bc8:    bf08        ..      IT       EQ
        0x08002bca:    f44f4410    O..D    MOVEQ    r4,#0x9000
        0x08002bce:    4620         F      MOV      r0,r4
        0x08002bd0:    f44f5180    O..Q    MOV      r1,#0x1000
        0x08002bd4:    f7fdff58    ..X.    BL       flash_erase ; 0x8000a88
        0x08002bd8:    b938        8.      CBNZ     r0,0x8002bea ; sys_status_internal_set + 518
        0x08002bda:    f0440010    D...    ORR      r0,r4,#0x10
        0x08002bde:    f1a60210    ....    SUB      r2,r6,#0x10
        0x08002be2:    4649        IF      MOV      r1,r9
        0x08002be4:    f7fefb00    ....    BL       flash_write ; 0x80011e8
        0x08002be8:    b138        8.      CBZ      r0,0x8002bfa ; sys_status_internal_set + 534
        0x08002bea:    4680        .F      MOV      r8,r0
        0x08002bec:    2701        .'      MOVS     r7,#1
        0x08002bee:    e76b        k.      B        0x8002ac8 ; sys_status_internal_set + 228
        0x08002bf0:    4645        EF      MOV      r5,r8
        0x08002bf2:    2720         '      MOVS     r7,#0x20
        0x08002bf4:    f04f0800    O...    MOV      r8,#0
        0x08002bf8:    e766        f.      B        0x8002ac8 ; sys_status_internal_set + 228
        0x08002bfa:    4620         F      MOV      r0,r4
        0x08002bfc:    4629        )F      MOV      r1,r5
        0x08002bfe:    2210        ."      MOVS     r2,#0x10
        0x08002c00:    f7fefaf2    ....    BL       flash_write ; 0x80011e8
        0x08002c04:    4680        .F      MOV      r8,r0
        0x08002c06:    4607        .F      MOV      r7,r0
        0x08002c08:    2800        .(      CMP      r0,#0
        0x08002c0a:    bf18        ..      IT       NE
        0x08002c0c:    2701        .'      MOVNE    r7,#1
        0x08002c0e:    e75b        [.      B        0x8002ac8 ; sys_status_internal_set + 228
    $d.9
        0x08002c10:    3a474244    DBG:    DCD    977748548
        0x08002c14:    74655320     Set    DCD    1952797472
        0x08002c18:    73797320     sys    DCD    1937339168
        0x08002c1c:    61747320     sta    DCD    1635021600
        0x08002c20:    20737574    tus     DCD    544437620
        0x08002c24:    65707974    type    DCD    1701869940
        0x08002c28:    2e642520     %d.    DCD    778315040
        0x08002c2c:    00000a0d    ....    DCD    2573
        0x08002c30:    4e524157    WARN    DCD    1314013527
        0x08002c34:    7453203a    : St    DCD    1951604794
        0x08002c38:    73757461    atus    DCD    1937077345
        0x08002c3c:    74657320     set    DCD    1952805664
        0x08002c40:    69616620     fai    DCD    1767990816
        0x08002c44:    2864656c    led(    DCD    677668204
        0x08002c48:    78257830    0x%x    DCD    2015721520
        0x08002c4c:    2964252c    ,%d)    DCD    694428972
        0x08002c50:    000a0d2e    ....    DCD    658734
    $t.6
    sys_status_set
        0x08002c54:    b580        ..      PUSH     {r7,lr}
        0x08002c56:    1ec3        ..      SUBS     r3,r0,#3
        0x08002c58:    2b02        .+      CMP      r3,#2
        0x08002c5a:    d20f        ..      BCS      0x8002c7c ; sys_status_set + 40
        0x08002c5c:    f6403094    @..0    MOV      r0,#0xb94
        0x08002c60:    f2c20000    ....    MOVT     r0,#0x2000
        0x08002c64:    6800        .h      LDR      r0,[r0,#0]
        0x08002c66:    2803        .(      CMP      r0,#3
        0x08002c68:    bfbc        ..      ITT      LT
        0x08002c6a:    f06f0001    o...    MVNLT    r0,#1
        0x08002c6e:    bd80        ..      POPLT    {r7,pc}
        0x08002c70:    a00d        ..      ADR      r0,{pc}+0x38 ; 0x8002ca8
        0x08002c72:    f7fdfccd    ....    BL       co_printf ; 0x8000610
        0x08002c76:    f06f0001    o...    MVN      r0,#1
        0x08002c7a:    bd80        ..      POP      {r7,pc}
        0x08002c7c:    2807        .(      CMP      r0,#7
        0x08002c7e:    d10f        ..      BNE      0x8002ca0 ; sys_status_set + 76
        0x08002c80:    f6403094    @..0    MOV      r0,#0xb94
        0x08002c84:    f2c20000    ....    MOVT     r0,#0x2000
        0x08002c88:    6800        .h      LDR      r0,[r0,#0]
        0x08002c8a:    2803        .(      CMP      r0,#3
        0x08002c8c:    bfbc        ..      ITT      LT
        0x08002c8e:    f04f30ff    O..0    MOVLT    r0,#0xffffffff
        0x08002c92:    bd80        ..      POPLT    {r7,pc}
        0x08002c94:    a013        ..      ADR      r0,{pc}+0x50 ; 0x8002ce4
        0x08002c96:    f7fdfcbb    ....    BL       co_printf ; 0x8000610
        0x08002c9a:    f04f30ff    O..0    MOV      r0,#0xffffffff
        0x08002c9e:    bd80        ..      POP      {r7,pc}
        0x08002ca0:    e8bd4080    ...@    POP      {r7,lr}
        0x08002ca4:    f7ffbe9e    ....    B.W      sys_status_internal_set ; 0x80029e4
    $d.7
        0x08002ca8:    4e524157    WARN    DCD    1314013527
        0x08002cac:    6c50203a    : Pl    DCD    1817190458
        0x08002cb0:    65736165    ease    DCD    1702060389
        0x08002cb4:    6c616320     cal    DCD    1818321696
        0x08002cb8:    7973206c    l sy    DCD    2037588076
        0x08002cbc:    6d695f73    s_im    DCD    1835622259
        0x08002cc0:    6c665f67    g_fl    DCD    1818648423
        0x08002cc4:    735f6761    ag_s    DCD    1935632225
        0x08002cc8:    74207465    et t    DCD    1948284005
        0x08002ccc:    6573206f    o se    DCD    1702043759
        0x08002cd0:    6d692074    t im    DCD    1835606132
        0x08002cd4:    20656761    age     DCD    543516513
        0x08002cd8:    74617473    stat    DCD    1952543859
        0x08002cdc:    0d2e7375    us..    DCD    221148021
        0x08002ce0:    0000000a    ....    DCD    10
        0x08002ce4:    4e524157    WARN    DCD    1314013527
        0x08002ce8:    6c50203a    : Pl    DCD    1817190458
        0x08002cec:    65736165    ease    DCD    1702060389
        0x08002cf0:    6c616320     cal    DCD    1818321696
        0x08002cf4:    7973206c    l sy    DCD    2037588076
        0x08002cf8:    70755f73    s_up    DCD    1886740339
        0x08002cfc:    65746164    date    DCD    1702125924
        0x08002d00:    5f77665f    _fw_    DCD    1601660511
        0x08002d04:    73726576    vers    DCD    1936876918
        0x08002d08:    206e6f69    ion     DCD    544108393
        0x08002d0c:    73206f74    to s    DCD    1931505524
        0x08002d10:    76207465    et v    DCD    1981838437
        0x08002d14:    69737265    ersi    DCD    1769173605
        0x08002d18:    0d2e6e6f    on..    DCD    221146735
        0x08002d1c:    0000000a    ....    DCD    10
    $t.18
    sys_status_show
        0x08002d20:    e92d4ff0    -..O    PUSH     {r4-r11,lr}
        0x08002d24:    b087        ..      SUB      sp,sp,#0x1c
        0x08002d26:    a803        ..      ADD      r0,sp,#0xc
        0x08002d28:    a902        ..      ADD      r1,sp,#8
        0x08002d2a:    f7fdfaf7    ....    BL       active_header_get ; 0x800031c
        0x08002d2e:    4606        .F      MOV      r6,r0
        0x08002d30:    b118        ..      CBZ      r0,0x8002d3a ; sys_status_show + 26
        0x08002d32:    2e00        ..      CMP      r6,#0
        0x08002d34:    f0408084    @...    BNE.W    0x8002e40 ; sys_status_show + 288
        0x08002d38:    e090        ..      B        0x8002e5c ; sys_status_show + 316
        0x08002d3a:    9d03        ..      LDR      r5,[sp,#0xc]
        0x08002d3c:    f5b55f80    ..._    CMP      r5,#0x1000
        0x08002d40:    d87b        {.      BHI      0x8002e3a ; sys_status_show + 282
        0x08002d42:    9805        ..      LDR      r0,[sp,#0x14]
        0x08002d44:    f2427150    B.Pq    MOV      r1,#0x2750
        0x08002d48:    f6c11134    ..4.    MOVT     r1,#0x1934
        0x08002d4c:    4288        .B      CMP      r0,r1
        0x08002d4e:    d174        t.      BNE      0x8002e3a ; sys_status_show + 282
        0x08002d50:    9e02        ..      LDR      r6,[sp,#8]
        0x08002d52:    f24330b6    C..0    MOV      r0,#0x33b6
        0x08002d56:    a143        C.      ADR      r1,{pc}+0x10e ; 0x8002e64
        0x08002d58:    f6c00000    ....    MOVT     r0,#0x800
        0x08002d5c:    f5b64f00    ...O    CMP      r6,#0x8000
        0x08002d60:    bf08        ..      IT       EQ
        0x08002d62:    4601        .F      MOVEQ    r1,r0
        0x08002d64:    a045        E.      ADR      r0,{pc}+0x118 ; 0x8002e7c
        0x08002d66:    f7fdfc53    ..S.    BL       co_printf ; 0x8000610
        0x08002d6a:    a04d        M.      ADR      r0,{pc}+0x136 ; 0x8002ea0
        0x08002d6c:    4629        )F      MOV      r1,r5
        0x08002d6e:    462a        *F      MOV      r2,r5
        0x08002d70:    f7fdfc4e    ..N.    BL       co_printf ; 0x8000610
        0x08002d74:    9904        ..      LDR      r1,[sp,#0x10]
        0x08002d76:    a051        Q.      ADR      r0,{pc}+0x146 ; 0x8002ebc
        0x08002d78:    f7fdfc4a    ..J.    BL       co_printf ; 0x8000610
        0x08002d7c:    9906        ..      LDR      r1,[sp,#0x18]
        0x08002d7e:    a055        U.      ADR      r0,{pc}+0x156 ; 0x8002ed4
        0x08002d80:    f7fdfc46    ..F.    BL       co_printf ; 0x8000610
        0x08002d84:    f1050010    ....    ADD      r0,r5,#0x10
        0x08002d88:    0729        ).      LSLS     r1,r5,#28
        0x08002d8a:    462f        /F      MOV      r7,r5
        0x08002d8c:    bf18        ..      IT       NE
        0x08002d8e:    f020070f     ...    BICNE    r7,r0,#0xf
        0x08002d92:    4638        8F      MOV      r0,r7
        0x08002d94:    2101        .!      MOVS     r1,#1
        0x08002d96:    f000fabc    ....    BL       $Ven$TT$L$$mbedtls_calloc ; 0x8003312
        0x08002d9a:    2800        .(      CMP      r0,#0
        0x08002d9c:    d05e        ^.      BEQ      0x8002e5c ; sys_status_show + 316
        0x08002d9e:    4683        .F      MOV      r11,r0
        0x08002da0:    4630        0F      MOV      r0,r6
        0x08002da2:    4659        YF      MOV      r1,r11
        0x08002da4:    463a        :F      MOV      r2,r7
        0x08002da6:    f7fdff65    ..e.    BL       flash_indirect_read ; 0x8000c74
        0x08002daa:    4606        .F      MOV      r6,r0
        0x08002dac:    2800        .(      CMP      r0,#0
        0x08002dae:    d13f        ?.      BNE      0x8002e30 ; sys_status_show + 272
        0x08002db0:    2000        .       MOVS     r0,#0
        0x08002db2:    4659        YF      MOV      r1,r11
        0x08002db4:    463a        :F      MOV      r2,r7
        0x08002db6:    465b        [F      MOV      r3,r11
        0x08002db8:    f7fffbc6    ....    BL       sys_status_crypt ; 0x8002548
        0x08002dbc:    4606        .F      MOV      r6,r0
        0x08002dbe:    bbb8        ..      CBNZ     r0,0x8002e30 ; sys_status_show + 272
        0x08002dc0:    a049        I.      ADR      r0,{pc}+0x128 ; 0x8002ee8
        0x08002dc2:    f7fdfc25    ..%.    BL       co_printf ; 0x8000610
        0x08002dc6:    f1b50010    ....    SUBS     r0,r5,#0x10
        0x08002dca:    9001        ..      STR      r0,[sp,#4]
        0x08002dcc:    d02f        /.      BEQ      0x8002e2e ; sys_status_show + 270
        0x08002dce:    f24337cc    C..7    MOV      r7,#0x33cc
        0x08002dd2:    f10b0410    ....    ADD      r4,r11,#0x10
        0x08002dd6:    f04f0800    O...    MOV      r8,#0
        0x08002dda:    f6c00700    ....    MOVT     r7,#0x800
        0x08002dde:    a546        F.      ADR      r5,{pc}+0x11a ; 0x8002ef8
        0x08002de0:    f894a001    ....    LDRB     r10,[r4,#1]
        0x08002de4:    7821        !x      LDRB     r1,[r4,#0]
        0x08002de6:    a042        B.      ADR      r0,{pc}+0x10a ; 0x8002ef0
        0x08002de8:    4652        RF      MOV      r2,r10
        0x08002dea:    f7fdfc11    ....    BL       co_printf ; 0x8000610
        0x08002dee:    f1ba0f00    ....    CMP      r10,#0
        0x08002df2:    d00f        ..      BEQ      0x8002e14 ; sys_status_show + 244
        0x08002df4:    f1040902    ....    ADD      r9,r4,#2
        0x08002df8:    4656        VF      MOV      r6,r10
        0x08002dfa:    bf00        ..      NOP      
        0x08002dfc:    f8991000    ....    LDRB     r1,[r9,#0]
        0x08002e00:    2e01        ..      CMP      r6,#1
        0x08002e02:    bf14        ..      ITE      NE
        0x08002e04:    4628        (F      MOVNE    r0,r5
        0x08002e06:    4638        8F      MOVEQ    r0,r7
        0x08002e08:    f7fdfc02    ....    BL       co_printf ; 0x8000610
        0x08002e0c:    3e01        .>      SUBS     r6,#1
        0x08002e0e:    f1090901    ....    ADD      r9,r9,#1
        0x08002e12:    d1f3        ..      BNE      0x8002dfc ; sys_status_show + 220
        0x08002e14:    f24330c9    C..0    MOV      r0,#0x33c9
        0x08002e18:    f6c00000    ....    MOVT     r0,#0x800
        0x08002e1c:    f7fdfbf8    ....    BL       co_printf ; 0x8000610
        0x08002e20:    f10a0002    ....    ADD      r0,r10,#2
        0x08002e24:    9901        ..      LDR      r1,[sp,#4]
        0x08002e26:    4480        .D      ADD      r8,r8,r0
        0x08002e28:    4588        .E      CMP      r8,r1
        0x08002e2a:    4404        .D      ADD      r4,r4,r0
        0x08002e2c:    d3d8        ..      BCC      0x8002de0 ; sys_status_show + 192
        0x08002e2e:    2600        .&      MOVS     r6,#0
        0x08002e30:    4658        XF      MOV      r0,r11
        0x08002e32:    f000fa73    ..s.    BL       $Ven$TT$L$$mbedtls_free ; 0x800331c
        0x08002e36:    b91e        ..      CBNZ     r6,0x8002e40 ; sys_status_show + 288
        0x08002e38:    e010        ..      B        0x8002e5c ; sys_status_show + 316
        0x08002e3a:    f06f06fe    o...    MVN      r6,#0xfe
        0x08002e3e:    b16e        n.      CBZ      r6,0x8002e5c ; sys_status_show + 316
        0x08002e40:    f6403094    @..0    MOV      r0,#0xb94
        0x08002e44:    f2c20000    ....    MOVT     r0,#0x2000
        0x08002e48:    6800        .h      LDR      r0,[r0,#0]
        0x08002e4a:    2803        .(      CMP      r0,#3
        0x08002e4c:    db06        ..      BLT      0x8002e5c ; sys_status_show + 316
        0x08002e4e:    f2433095    C..0    MOV      r0,#0x3395
        0x08002e52:    f6c00000    ....    MOVT     r0,#0x800
        0x08002e56:    4631        1F      MOV      r1,r6
        0x08002e58:    f7fdfbda    ....    BL       co_printf ; 0x8000610
        0x08002e5c:    b007        ..      ADD      sp,sp,#0x1c
        0x08002e5e:    e8bd8ff0    ....    POP      {r4-r11,pc}
        0x08002e62:    bf00        ..      NOP      
    $d.19
        0x08002e64:    74737953    Syst    DCD    1953724755
        0x08002e68:    53206d65    em S    DCD    1394634085
        0x08002e6c:    75746174    tatu    DCD    1970561396
        0x08002e70:    50203a73    s: P    DCD    1344289395
        0x08002e74:    0d676e6f    ong.    DCD    224882287
        0x08002e78:    0000000a    ....    DCD    10
        0x08002e7c:    3d3d7325    %s==    DCD    1027437349
        0x08002e80:    3d3d3d3d    ====    DCD    1027423549
        0x08002e84:    3d3d3d3d    ====    DCD    1027423549
        0x08002e88:    3d3d3d3d    ====    DCD    1027423549
        0x08002e8c:    3d3d3d3d    ====    DCD    1027423549
        0x08002e90:    3d3d3d3d    ====    DCD    1027423549
        0x08002e94:    3d3d3d3d    ====    DCD    1027423549
        0x08002e98:    0d3d3d3d    ===.    DCD    222117181
        0x08002e9c:    0000000a    ....    DCD    10
        0x08002ea0:    61746f54    Tota    DCD    1635020628
        0x08002ea4:    654c206c    l Le    DCD    1699487852
        0x08002ea8:    6874676e    ngth    DCD    1752459118
        0x08002eac:    7830203a    : 0x    DCD    2016419898
        0x08002eb0:    28207825    %x (    DCD    673216549
        0x08002eb4:    09296425    %d).    DCD    153707557
        0x08002eb8:    00000a0d    ....    DCD    2573
        0x08002ebc:    69746341    Acti    DCD    1769235265
        0x08002ec0:    43206576    ve C    DCD    1126196598
        0x08002ec4:    746e756f    ount    DCD    1953396079
        0x08002ec8:    203a7265    er:     DCD    540701285
        0x08002ecc:    09782530    0%x.    DCD    158868784
        0x08002ed0:    00000a0d    ....    DCD    2573
        0x08002ed4:    63656843    Chec    DCD    1667590211
        0x08002ed8:    6d75736b    ksum    DCD    1836413803
        0x08002edc:    7830203a    : 0x    DCD    2016419898
        0x08002ee0:    09097825    %x..    DCD    151615525
        0x08002ee4:    00000a0d    ....    DCD    2573
        0x08002ee8:    094c0954    T.L.    DCD    155978068
        0x08002eec:    000a0d56    V...    DCD    658774
        0x08002ef0:    25096425    %d.%    DCD    621372453
        0x08002ef4:    00000964    d...    DCD    2404
        0x08002ef8:    78323025    %02x    DCD    2016555045
        0x08002efc:    0000002d    -...    DCD    45
    $t.13
    sys_trace_level_set
        0x08002f00:    b580        ..      PUSH     {r7,lr}
        0x08002f02:    b082        ..      SUB      sp,sp,#8
        0x08002f04:    2805        .(      CMP      r0,#5
        0x08002f06:    f88d0007    ....    STRB     r0,[sp,#7]
        0x08002f0a:    bf8f        ..      ITEEE    HI
        0x08002f0c:    f04f30ff    O..0    MOVHI    r0,#0xffffffff
        0x08002f10:    f10d0207    ....    ADDLS    r2,sp,#7
        0x08002f14:    2002        .       MOVLS    r0,#2
        0x08002f16:    2101        .!      MOVLS    r1,#1
        0x08002f18:    bf98        ..      IT       LS
        0x08002f1a:    f7fffd63    ..c.    BLLS     sys_status_internal_set ; 0x80029e4
        0x08002f1e:    b002        ..      ADD      sp,sp,#8
        0x08002f20:    bd80        ..      POP      {r7,pc}
        0x08002f22:    0000        ..      MOVS     r0,r0
    sys_trng_seed_set
        0x08002f24:    b580        ..      PUSH     {r7,lr}
        0x08002f26:    b082        ..      SUB      sp,sp,#8
        0x08002f28:    2800        .(      CMP      r0,#0
        0x08002f2a:    bf18        ..      IT       NE
        0x08002f2c:    2001        .       MOVNE    r0,#1
        0x08002f2e:    f88d0007    ....    STRB     r0,[sp,#7]
        0x08002f32:    f10d0207    ....    ADD      r2,sp,#7
        0x08002f36:    200a        .       MOVS     r0,#0xa
        0x08002f38:    2101        .!      MOVS     r1,#1
        0x08002f3a:    f7fffd53    ..S.    BL       sys_status_internal_set ; 0x80029e4
        0x08002f3e:    b002        ..      ADD      sp,sp,#8
        0x08002f40:    bd80        ..      POP      {r7,pc}
        0x08002f42:    0000        ..      MOVS     r0,r0
    system_clock_180m_40m_hxtal
        0x08002f44:    b081        ..      SUB      sp,sp,#4
        0x08002f46:    f6430000    C...    MOVW     r0,#0x3800
        0x08002f4a:    f2c40002    ....    MOVT     r0,#0x4002
        0x08002f4e:    6801        .h      LDR      r1,[r0,#0]
        0x08002f50:    f0415180    A..Q    ORR      r1,r1,#0x10000000
        0x08002f54:    6001        .`      STR      r1,[r0,#0]
        0x08002f56:    6801        .h      LDR      r1,[r0,#0]
        0x08002f58:    f4413180    A..1    ORR      r1,r1,#0x10000
        0x08002f5c:    6001        .`      STR      r1,[r0,#0]
        0x08002f5e:    6801        .h      LDR      r1,[r0,#0]
        0x08002f60:    f0414180    A..A    ORR      r1,r1,#0x40000000
        0x08002f64:    6001        .`      STR      r1,[r0,#0]
        0x08002f66:    2100        .!      MOVS     r1,#0
        0x08002f68:    9100        ..      STR      r1,[sp,#0]
        0x08002f6a:    9a00        ..      LDR      r2,[sp,#0]
        0x08002f6c:    ebb13f52    ..R?    CMP      r1,r2,LSR #13
        0x08002f70:    d11c        ..      BNE      0x8002fac ; system_clock_180m_40m_hxtal + 104
        0x08002f72:    bf00        ..      NOP      
        0x08002f74:    9a00        ..      LDR      r2,[sp,#0]
        0x08002f76:    3201        .2      ADDS     r2,#1
        0x08002f78:    9200        ..      STR      r2,[sp,#0]
        0x08002f7a:    9a00        ..      LDR      r2,[sp,#0]
        0x08002f7c:    f5b25f00    ..._    CMP      r2,#0x2000
        0x08002f80:    d214        ..      BCS      0x8002fac ; system_clock_180m_40m_hxtal + 104
        0x08002f82:    9a00        ..      LDR      r2,[sp,#0]
        0x08002f84:    3201        .2      ADDS     r2,#1
        0x08002f86:    9200        ..      STR      r2,[sp,#0]
        0x08002f88:    9a00        ..      LDR      r2,[sp,#0]
        0x08002f8a:    ebb13f52    ..R?    CMP      r1,r2,LSR #13
        0x08002f8e:    d10d        ..      BNE      0x8002fac ; system_clock_180m_40m_hxtal + 104
        0x08002f90:    9a00        ..      LDR      r2,[sp,#0]
        0x08002f92:    3201        .2      ADDS     r2,#1
        0x08002f94:    9200        ..      STR      r2,[sp,#0]
        0x08002f96:    9a00        ..      LDR      r2,[sp,#0]
        0x08002f98:    ebb13f52    ..R?    CMP      r1,r2,LSR #13
        0x08002f9c:    d106        ..      BNE      0x8002fac ; system_clock_180m_40m_hxtal + 104
        0x08002f9e:    9a00        ..      LDR      r2,[sp,#0]
        0x08002fa0:    3201        .2      ADDS     r2,#1
        0x08002fa2:    9200        ..      STR      r2,[sp,#0]
        0x08002fa4:    9a00        ..      LDR      r2,[sp,#0]
        0x08002fa6:    f5b25f00    ..._    CMP      r2,#0x2000
        0x08002faa:    d3e3        ..      BCC      0x8002f74 ; system_clock_180m_40m_hxtal + 48
        0x08002fac:    6801        .h      LDR      r1,[r0,#0]
        0x08002fae:    f0414100    A..A    ORR      r1,r1,#0x80000000
        0x08002fb2:    6001        .`      STR      r1,[r0,#0]
        0x08002fb4:    f64f71fc    O..q    MOV      r1,#0xfffc
        0x08002fb8:    6802        .h      LDR      r2,[r0,#0]
        0x08002fba:    0392        ..      LSLS     r2,r2,#14
        0x08002fbc:    bf5c        \.      ITT      PL
        0x08002fbe:    6802        .h      LDRPL    r2,[r0,#0]
        0x08002fc0:    ea5f3282    _..2    LSLSPL   r2,r2,#14
        0x08002fc4:    d408        ..      BMI      0x8002fd8 ; system_clock_180m_40m_hxtal + 148
        0x08002fc6:    6802        .h      LDR      r2,[r0,#0]
        0x08002fc8:    b131        1.      CBZ      r1,0x8002fd8 ; system_clock_180m_40m_hxtal + 148
        0x08002fca:    f4123200    ...2    ANDS     r2,r2,#0x20000
        0x08002fce:    d103        ..      BNE      0x8002fd8 ; system_clock_180m_40m_hxtal + 148
        0x08002fd0:    6802        .h      LDR      r2,[r0,#0]
        0x08002fd2:    3904        .9      SUBS     r1,#4
        0x08002fd4:    0392        ..      LSLS     r2,r2,#14
        0x08002fd6:    d5ef        ..      BPL      0x8002fb8 ; system_clock_180m_40m_hxtal + 116
        0x08002fd8:    6801        .h      LDR      r1,[r0,#0]
        0x08002fda:    0389        ..      LSLS     r1,r1,#14
        0x08002fdc:    d401        ..      BMI      0x8002fe2 ; system_clock_180m_40m_hxtal + 158
        0x08002fde:    bf00        ..      NOP      
        0x08002fe0:    e7fe        ..      B        0x8002fe0 ; system_clock_180m_40m_hxtal + 156
        0x08002fe2:    6c01        .l      LDR      r1,[r0,#0x40]
        0x08002fe4:    f0415180    A..Q    ORR      r1,r1,#0x10000000
        0x08002fe8:    6401        .d      STR      r1,[r0,#0x40]
        0x08002fea:    f2470100    G...    MOVW     r1,#0x7000
        0x08002fee:    f2c40100    ....    MOVT     r1,#0x4000
        0x08002ff2:    680a        .h      LDR      r2,[r1,#0]
        0x08002ff4:    f4424240    B.@B    ORR      r2,r2,#0xc000
        0x08002ff8:    600a        .`      STR      r2,[r1,#0]
        0x08002ffa:    6881        .h      LDR      r1,[r0,#8]
        0x08002ffc:    6081        .`      STR      r1,[r0,#8]
        0x08002ffe:    6881        .h      LDR      r1,[r0,#8]
        0x08003000:    f4414100    A..A    ORR      r1,r1,#0x8000
        0x08003004:    6081        .`      STR      r1,[r0,#8]
        0x08003006:    6881        .h      LDR      r1,[r0,#8]
        0x08003008:    f44151a0    A..Q    ORR      r1,r1,#0x1400
        0x0800300c:    6081        .`      STR      r1,[r0,#8]
        0x0800300e:    f64d2128    M.(!    MOV      r1,#0xda28
        0x08003012:    6041        A`      STR      r1,[r0,#4]
        0x08003014:    6801        .h      LDR      r1,[r0,#0]
        0x08003016:    f0417180    A..q    ORR      r1,r1,#0x1000000
        0x0800301a:    6001        .`      STR      r1,[r0,#0]
        0x0800301c:    6801        .h      LDR      r1,[r0,#0]
        0x0800301e:    0189        ..      LSLS     r1,r1,#6
        0x08003020:    bf5c        \.      ITT      PL
        0x08003022:    6801        .h      LDRPL    r1,[r0,#0]
        0x08003024:    ea5f1181    _...    LSLSPL   r1,r1,#6
        0x08003028:    d405        ..      BMI      0x8003036 ; system_clock_180m_40m_hxtal + 242
        0x0800302a:    6801        .h      LDR      r1,[r0,#0]
        0x0800302c:    0189        ..      LSLS     r1,r1,#6
        0x0800302e:    d402        ..      BMI      0x8003036 ; system_clock_180m_40m_hxtal + 242
        0x08003030:    6801        .h      LDR      r1,[r0,#0]
        0x08003032:    0189        ..      LSLS     r1,r1,#6
        0x08003034:    d5f2        ..      BPL      0x800301c ; system_clock_180m_40m_hxtal + 216
        0x08003036:    6881        .h      LDR      r1,[r0,#8]
        0x08003038:    f0210103    !...    BIC      r1,r1,#3
        0x0800303c:    6081        .`      STR      r1,[r0,#8]
        0x0800303e:    6881        .h      LDR      r1,[r0,#8]
        0x08003040:    f0410102    A...    ORR      r1,r1,#2
        0x08003044:    6081        .`      STR      r1,[r0,#8]
        0x08003046:    6881        .h      LDR      r1,[r0,#8]
        0x08003048:    0709        ..      LSLS     r1,r1,#28
        0x0800304a:    d409        ..      BMI      0x8003060 ; system_clock_180m_40m_hxtal + 284
        0x0800304c:    6881        .h      LDR      r1,[r0,#8]
        0x0800304e:    0709        ..      LSLS     r1,r1,#28
        0x08003050:    bf5c        \.      ITT      PL
        0x08003052:    6881        .h      LDRPL    r1,[r0,#8]
        0x08003054:    ea5f7101    _..q    LSLSPL   r1,r1,#28
        0x08003058:    d402        ..      BMI      0x8003060 ; system_clock_180m_40m_hxtal + 284
        0x0800305a:    6881        .h      LDR      r1,[r0,#8]
        0x0800305c:    0709        ..      LSLS     r1,r1,#28
        0x0800305e:    d5f2        ..      BPL      0x8003046 ; system_clock_180m_40m_hxtal + 258
        0x08003060:    b001        ..      ADD      sp,sp,#4
        0x08003062:    4770        pG      BX       lr
    uart_config
        0x08003064:    b570        p.      PUSH     {r4-r6,lr}
        0x08003066:    4604        .F      MOV      r4,r0
        0x08003068:    f2410000    A...    MOVW     r0,#0x1000
        0x0800306c:    f2c40001    ....    MOVT     r0,#0x4001
        0x08003070:    4284        .B      CMP      r4,r0
        0x08003072:    d041        A.      BEQ      0x80030f8 ; uart_config + 148
        0x08003074:    f2444000    D..@    MOVW     r0,#0x4400
        0x08003078:    f2c40000    ....    MOVT     r0,#0x4000
        0x0800307c:    4284        .B      CMP      r4,r0
        0x0800307e:    bf18        ..      IT       NE
        0x08003080:    bd70        p.      POPNE    {r4-r6,pc}
        0x08003082:    f2410011    A...    MOV      r0,#0x1011
        0x08003086:    f7fff855    ..U.    BL       rcu_periph_clock_enable ; 0x8002134
        0x0800308a:    f6404001    @..@    MOV      r0,#0xc01
        0x0800308e:    f7fff851    ..Q.    BL       rcu_periph_clock_enable ; 0x8002134
        0x08003092:    f44f6040    O.@`    MOV      r0,#0xc00
        0x08003096:    f7fff84d    ..M.    BL       rcu_periph_clock_enable ; 0x8002134
        0x0800309a:    f2404600    @..F    MOVW     r6,#0x400
        0x0800309e:    f2c40602    ....    MOVT     r6,#0x4002
        0x080030a2:    4630        0F      MOV      r0,r6
        0x080030a4:    2107        .!      MOVS     r1,#7
        0x080030a6:    f44f4200    O..B    MOV      r2,#0x8000
        0x080030aa:    f7fefbcf    ....    BL       gpio_af_set ; 0x800184c
        0x080030ae:    f5a66580    ...e    SUB      r5,r6,#0x400
        0x080030b2:    4628        (F      MOV      r0,r5
        0x080030b4:    2103        .!      MOVS     r1,#3
        0x080030b6:    f44f7280    O..r    MOV      r2,#0x100
        0x080030ba:    f7fefbc7    ....    BL       gpio_af_set ; 0x800184c
        0x080030be:    4630        0F      MOV      r0,r6
        0x080030c0:    2102        .!      MOVS     r1,#2
        0x080030c2:    2200        ."      MOVS     r2,#0
        0x080030c4:    f44f4300    O..C    MOV      r3,#0x8000
        0x080030c8:    f7fefc2a    ..*.    BL       gpio_mode_set ; 0x8001920
        0x080030cc:    4630        0F      MOV      r0,r6
        0x080030ce:    2100        .!      MOVS     r1,#0
        0x080030d0:    2202        ."      MOVS     r2,#2
        0x080030d2:    f44f4300    O..C    MOV      r3,#0x8000
        0x080030d6:    f7fefcdf    ....    BL       gpio_output_options_set ; 0x8001a98
        0x080030da:    4628        (F      MOV      r0,r5
        0x080030dc:    2102        .!      MOVS     r1,#2
        0x080030de:    2200        ."      MOVS     r2,#0
        0x080030e0:    f44f7380    O..s    MOV      r3,#0x100
        0x080030e4:    f7fefc1c    ....    BL       gpio_mode_set ; 0x8001920
        0x080030e8:    4628        (F      MOV      r0,r5
        0x080030ea:    2100        .!      MOVS     r1,#0
        0x080030ec:    2202        ."      MOVS     r2,#2
        0x080030ee:    f44f7380    O..s    MOV      r3,#0x100
        0x080030f2:    f7fefcd1    ....    BL       gpio_output_options_set ; 0x8001a98
        0x080030f6:    e033        3.      B        0x8003160 ; uart_config + 252
        0x080030f8:    f2411004    A...    MOV      r0,#0x1104
        0x080030fc:    f7fff81a    ....    BL       rcu_periph_clock_enable ; 0x8002134
        0x08003100:    f6404001    @..@    MOV      r0,#0xc01
        0x08003104:    f7fff816    ....    BL       rcu_periph_clock_enable ; 0x8002134
        0x08003108:    f2404500    @..E    MOVW     r5,#0x400
        0x0800310c:    f2c40502    ....    MOVT     r5,#0x4002
        0x08003110:    4628        (F      MOV      r0,r5
        0x08003112:    2107        .!      MOVS     r1,#7
        0x08003114:    f44f6280    O..b    MOV      r2,#0x400
        0x08003118:    f7fefb98    ....    BL       gpio_af_set ; 0x800184c
        0x0800311c:    4628        (F      MOV      r0,r5
        0x0800311e:    2107        .!      MOVS     r1,#7
        0x08003120:    f44f6200    O..b    MOV      r2,#0x800
        0x08003124:    f7fefb92    ....    BL       gpio_af_set ; 0x800184c
        0x08003128:    4628        (F      MOV      r0,r5
        0x0800312a:    2102        .!      MOVS     r1,#2
        0x0800312c:    2201        ."      MOVS     r2,#1
        0x0800312e:    f44f6380    O..c    MOV      r3,#0x400
        0x08003132:    f7fefbf5    ....    BL       gpio_mode_set ; 0x8001920
        0x08003136:    4628        (F      MOV      r0,r5
        0x08003138:    2100        .!      MOVS     r1,#0
        0x0800313a:    2202        ."      MOVS     r2,#2
        0x0800313c:    f44f6380    O..c    MOV      r3,#0x400
        0x08003140:    f7fefcaa    ....    BL       gpio_output_options_set ; 0x8001a98
        0x08003144:    4628        (F      MOV      r0,r5
        0x08003146:    2102        .!      MOVS     r1,#2
        0x08003148:    2201        ."      MOVS     r2,#1
        0x0800314a:    f44f6300    O..c    MOV      r3,#0x800
        0x0800314e:    f7fefbe7    ....    BL       gpio_mode_set ; 0x8001920
        0x08003152:    4628        (F      MOV      r0,r5
        0x08003154:    2100        .!      MOVS     r1,#0
        0x08003156:    2202        ."      MOVS     r2,#2
        0x08003158:    f44f6300    O..c    MOV      r3,#0x800
        0x0800315c:    f7fefc9c    ....    BL       gpio_output_options_set ; 0x8001a98
        0x08003160:    4620         F      MOV      r0,r4
        0x08003162:    f000f85d    ..].    BL       usart_deinit ; 0x8003220
        0x08003166:    4620         F      MOV      r0,r4
        0x08003168:    f44f31e1    O..1    MOV      r1,#0x1c200
        0x0800316c:    f000f81e    ....    BL       usart_baudrate_set ; 0x80031ac
        0x08003170:    4620         F      MOV      r0,r4
        0x08003172:    2108        .!      MOVS     r1,#8
        0x08003174:    f000f898    ....    BL       usart_transmit_config ; 0x80032a8
        0x08003178:    4620         F      MOV      r0,r4
        0x0800317a:    e8bd4070    ..p@    POP      {r4-r6,lr}
        0x0800317e:    f000b881    ....    B.W      usart_enable ; 0x8003284
        0x08003182:    0000        ..      MOVS     r0,r0
    uart_putc
        0x08003184:    b5b0        ..      PUSH     {r4,r5,r7,lr}
        0x08003186:    f2410500    A...    MOVW     r5,#0x1000
        0x0800318a:    4604        .F      MOV      r4,r0
        0x0800318c:    f2c40501    ....    MOVT     r5,#0x4001
        0x08003190:    4628        (F      MOV      r0,r5
        0x08003192:    f2407107    @..q    MOV      r1,#0x707
        0x08003196:    f000f87b    ..{.    BL       usart_flag_get ; 0x8003290
        0x0800319a:    2800        .(      CMP      r0,#0
        0x0800319c:    d0f8        ..      BEQ      0x8003190 ; uart_putc + 12
        0x0800319e:    4628        (F      MOV      r0,r5
        0x080031a0:    4621        !F      MOV      r1,r4
        0x080031a2:    e8bd40b0    ...@    POP      {r4,r5,r7,lr}
        0x080031a6:    f000b837    ..7.    B.W      usart_data_transmit ; 0x8003218
        0x080031aa:    0000        ..      MOVS     r0,r0
    usart_baudrate_set
        0x080031ac:    b5b0        ..      PUSH     {r4,r5,r7,lr}
        0x080031ae:    4604        .F      MOV      r4,r0
        0x080031b0:    f2410000    A...    MOVW     r0,#0x1000
        0x080031b4:    f2c40001    ....    MOVT     r0,#0x4001
        0x080031b8:    4284        .B      CMP      r4,r0
        0x080031ba:    460d        .F      MOV      r5,r1
        0x080031bc:    d00d        ..      BEQ      0x80031da ; usart_baudrate_set + 46
        0x080031be:    f6440000    D...    MOVW     r0,#0x4800
        0x080031c2:    f2c40000    ....    MOVT     r0,#0x4000
        0x080031c6:    4284        .B      CMP      r4,r0
        0x080031c8:    d009        ..      BEQ      0x80031de ; usart_baudrate_set + 50
        0x080031ca:    f2444000    D..@    MOVW     r0,#0x4400
        0x080031ce:    f2c40000    ....    MOVT     r0,#0x4000
        0x080031d2:    4284        .B      CMP      r4,r0
        0x080031d4:    d107        ..      BNE      0x80031e6 ; usart_baudrate_set + 58
        0x080031d6:    2002        .       MOVS     r0,#2
        0x080031d8:    e002        ..      B        0x80031e0 ; usart_baudrate_set + 52
        0x080031da:    2005        .       MOVS     r0,#5
        0x080031dc:    e000        ..      B        0x80031e0 ; usart_baudrate_set + 52
        0x080031de:    2004        .       MOVS     r0,#4
        0x080031e0:    f7fefeea    ....    BL       rcu_clock_freq_get ; 0x8001fb8
        0x080031e4:    e000        ..      B        0x80031e8 ; usart_baudrate_set + 60
        0x080031e6:    2000        .       MOVS     r0,#0
        0x080031e8:    6821        !h      LDR      r1,[r4,#0]
        0x080031ea:    0409        ..      LSLS     r1,r1,#16
        0x080031ec:    d406        ..      BMI      0x80031fc ; usart_baudrate_set + 80
        0x080031ee:    eb000055    ..U.    ADD      r0,r0,r5,LSR #1
        0x080031f2:    fbb0f0f5    ....    UDIV     r0,r0,r5
        0x080031f6:    b280        ..      UXTH     r0,r0
        0x080031f8:    60e0        .`      STR      r0,[r4,#0xc]
        0x080031fa:    bdb0        ..      POP      {r4,r5,r7,pc}
        0x080031fc:    0040        @.      LSLS     r0,r0,#1
        0x080031fe:    eb000055    ..U.    ADD      r0,r0,r5,LSR #1
        0x08003202:    f64f71f0    O..q    MOV      r1,#0xfff0
        0x08003206:    fbb0f0f5    ....    UDIV     r0,r0,r5
        0x0800320a:    f3c00242    ..B.    UBFX     r2,r0,#1,#3
        0x0800320e:    4008        .@      ANDS     r0,r0,r1
        0x08003210:    4410        .D      ADD      r0,r0,r2
        0x08003212:    60e0        .`      STR      r0,[r4,#0xc]
        0x08003214:    bdb0        ..      POP      {r4,r5,r7,pc}
        0x08003216:    0000        ..      MOVS     r0,r0
    usart_data_transmit
        0x08003218:    f36f215f    o._!    BFC      r1,#9,#23
        0x0800321c:    6281        .b      STR      r1,[r0,#0x28]
        0x0800321e:    4770        pG      BX       lr
    usart_deinit
        0x08003220:    b580        ..      PUSH     {r7,lr}
        0x08003222:    f2444100    D..A    MOVW     r1,#0x4400
        0x08003226:    f2c40100    ....    MOVT     r1,#0x4000
        0x0800322a:    4288        .B      CMP      r0,r1
        0x0800322c:    d016        ..      BEQ      0x800325c ; usart_deinit + 60
        0x0800322e:    f2410100    A...    MOVW     r1,#0x1000
        0x08003232:    f2c40101    ....    MOVT     r1,#0x4001
        0x08003236:    4288        .B      CMP      r0,r1
        0x08003238:    d01a        ..      BEQ      0x8003270 ; usart_deinit + 80
        0x0800323a:    f6440100    D...    MOVW     r1,#0x4800
        0x0800323e:    f2c40100    ....    MOVT     r1,#0x4000
        0x08003242:    4288        .B      CMP      r0,r1
        0x08003244:    bf18        ..      IT       NE
        0x08003246:    bd80        ..      POPNE    {r7,pc}
        0x08003248:    f6400012    @...    MOV      r0,#0x812
        0x0800324c:    f7feff92    ....    BL       rcu_periph_reset_enable ; 0x8002174
        0x08003250:    f6400012    @...    MOV      r0,#0x812
        0x08003254:    e8bd4080    ...@    POP      {r7,lr}
        0x08003258:    f7febf7c    ..|.    B        rcu_periph_reset_disable ; 0x8002154
        0x0800325c:    f6400011    @...    MOV      r0,#0x811
        0x08003260:    f7feff88    ....    BL       rcu_periph_reset_enable ; 0x8002174
        0x08003264:    f6400011    @...    MOV      r0,#0x811
        0x08003268:    e8bd4080    ...@    POP      {r7,lr}
        0x0800326c:    f7febf72    ..r.    B        rcu_periph_reset_disable ; 0x8002154
        0x08003270:    f6401004    @...    MOV      r0,#0x904
        0x08003274:    f7feff7e    ..~.    BL       rcu_periph_reset_enable ; 0x8002174
        0x08003278:    f6401004    @...    MOV      r0,#0x904
        0x0800327c:    e8bd4080    ...@    POP      {r7,lr}
        0x08003280:    f7febf68    ..h.    B        rcu_periph_reset_disable ; 0x8002154
    usart_enable
        0x08003284:    6801        .h      LDR      r1,[r0,#0]
        0x08003286:    f0410101    A...    ORR      r1,r1,#1
        0x0800328a:    6001        .`      STR      r1,[r0,#0]
        0x0800328c:    4770        pG      BX       lr
        0x0800328e:    0000        ..      MOVS     r0,r0
    usart_flag_get
        0x08003290:    f3c11289    ....    UBFX     r2,r1,#6,#10
        0x08003294:    f001011f    ....    AND      r1,r1,#0x1f
        0x08003298:    5810        .X      LDR      r0,[r2,r0]
        0x0800329a:    2201        ."      MOVS     r2,#1
        0x0800329c:    fa02f101    ....    LSL      r1,r2,r1
        0x080032a0:    4008        .@      ANDS     r0,r0,r1
        0x080032a2:    bf18        ..      IT       NE
        0x080032a4:    2001        .       MOVNE    r0,#1
        0x080032a6:    4770        pG      BX       lr
    usart_transmit_config
        0x080032a8:    6802        .h      LDR      r2,[r0,#0]
        0x080032aa:    f0220208    "...    BIC      r2,r2,#8
        0x080032ae:    6002        .`      STR      r2,[r0,#0]
        0x080032b0:    6802        .h      LDR      r2,[r0,#0]
        0x080032b2:    4311        .C      ORRS     r1,r1,r2
        0x080032b4:    6001        .`      STR      r1,[r0,#0]
        0x080032b6:    4770        pG      BX       lr
    $t
    $Ven$TT$L$$mbedtls_md5_ret
        0x080032b8:    f24e7cad    N..|    MOV      r12,#0xe7ad
        0x080032bc:    f6c07cf5    ...|    MOVT     r12,#0xff5
        0x080032c0:    4760        `G      BX       r12
    $Ven$TT$L$$mbedtls_aes_init
        0x080032c2:    f6464cb1    F..L    MOV      r12,#0x6cb1
        0x080032c6:    f6c07cf5    ...|    MOVT     r12,#0xff5
        0x080032ca:    4760        `G      BX       r12
    $Ven$TT$L$$mbedtls_aes_setkey_dec
        0x080032cc:    f6464cb9    F..L    MOV      r12,#0x6cb9
        0x080032d0:    f6c07cf5    ...|    MOVT     r12,#0xff5
        0x080032d4:    4760        `G      BX       r12
    $Ven$TT$L$$mbedtls_aes_crypt_ecb
        0x080032d6:    f6464c11    F..L    MOV      r12,#0x6c11
        0x080032da:    f6c07cf5    ...|    MOVT     r12,#0xff5
        0x080032de:    4760        `G      BX       r12
    $Ven$TT$L$$mbedtls_aes_free
        0x080032e0:    f6464ca5    F..L    MOV      r12,#0x6ca5
        0x080032e4:    f6c07cf5    ...|    MOVT     r12,#0xff5
        0x080032e8:    4760        `G      BX       r12
    $Ven$TT$L$$qspi_flash_sector_erase
        0x080032ea:    f2407c39    @.9|    MOV      r12,#0x739
        0x080032ee:    f2c20c00    ....    MOVT     r12,#0x2000
        0x080032f2:    4760        `G      BX       r12
    $Ven$TT$L$$qspi_flash_page_program
        0x080032f4:    f2406c15    @..l    MOV      r12,#0x615
        0x080032f8:    f2c20c00    ....    MOVT     r12,#0x2000
        0x080032fc:    4760        `G      BX       r12
    $Ven$TT$L$$qspi_flash_read
        0x080032fe:    f2406ced    @..l    MOV      r12,#0x6ed
        0x08003302:    f2c20c00    ....    MOVT     r12,#0x2000
        0x08003306:    4760        `G      BX       r12
    $Ven$TT$L$$qspi_flash_config
        0x08003308:    f2404c09    @..L    MOV      r12,#0x409
        0x0800330c:    f2c20c00    ....    MOVT     r12,#0x2000
        0x08003310:    4760        `G      BX       r12
    $Ven$TT$L$$mbedtls_calloc
        0x08003312:    f6475c29    G.)\    MOV      r12,#0x7d29
        0x08003316:    f6c07cf5    ...|    MOVT     r12,#0xff5
        0x0800331a:    4760        `G      BX       r12
    $Ven$TT$L$$mbedtls_free
        0x0800331c:    f24b3c4d    K.M<    MOV      r12,#0xb34d
        0x08003320:    f6c07cf5    ...|    MOVT     r12,#0xff5
        0x08003324:    4760        `G      BX       r12
    $Ven$TT$L$$mbedtls_memory_buffer_alloc_init
        0x08003326:    f64e4ce9    N..L    MOV      r12,#0xece9
        0x0800332a:    f6c07cf5    ...|    MOVT     r12,#0xff5
        0x0800332e:    4760        `G      BX       r12
    $Ven$TT$L$$mbedtls_aes_setkey_enc
        0x08003330:    f6464cc9    F..L    MOV      r12,#0x6cc9
        0x08003334:    f6c07cf5    ...|    MOVT     r12,#0xff5
        0x08003338:    4760        `G      BX       r12
    $Ven$TT$L$$mbedtls_aes_crypt_cbc
        0x0800333a:    f6462c25    F.%,    MOV      r12,#0x6a25
        0x0800333e:    f6c07cf5    ...|    MOVT     r12,#0xff5
        0x08003342:    4760        `G      BX       r12
    i.__scatterload_copy
    __scatterload_copy
        0x08003344:    e002        ..      B        0x800334c ; __scatterload_copy + 8
        0x08003346:    c808        ..      LDM      r0!,{r3}
        0x08003348:    1f12        ..      SUBS     r2,r2,#4
        0x0800334a:    c108        ..      STM      r1!,{r3}
        0x0800334c:    2a00        .*      CMP      r2,#0
        0x0800334e:    d1fa        ..      BNE      0x8003346 ; __scatterload_copy + 2
        0x08003350:    4770        pG      BX       lr
    i.__scatterload_null
    __scatterload_null
        0x08003352:    4770        pG      BX       lr
    i.__scatterload_zeroinit
    __scatterload_zeroinit
        0x08003354:    2000        .       MOVS     r0,#0
        0x08003356:    e001        ..      B        0x800335c ; __scatterload_zeroinit + 8
        0x08003358:    c101        ..      STM      r1!,{r0}
        0x0800335a:    1f12        ..      SUBS     r2,r2,#4
        0x0800335c:    2a00        .*      CMP      r2,#0
        0x0800335e:    d1fb        ..      BNE      0x8003358 ; __scatterload_zeroinit + 4
        0x08003360:    4770        pG      BX       lr
    $d.realdata
    .L__const.rcu_clock_freq_get.apb2_exp
        0x08003362:    0000        ..      DCW    0
        0x08003364:    02010000    ....    DCD    33619968
        0x08003368:    0403        ..      DCW    1027
    .L.str.1
        0x0800336a:    5245        ER      DCW    21061
        0x0800336c:    43203a52    R: C    DCD    1126185554
        0x08003370:    6b636568    heck    DCD    1801676136
        0x08003374:    73797320     sys    DCD    1937339168
        0x08003378:    61747320     sta    DCD    1635021600
        0x0800337c:    20737574    tus     DCD    544437620
        0x08003380:    6c696166    fail    DCD    1818845542
        0x08003384:    28206465    ed (    DCD    673211493
        0x08003388:    20746572    ret     DCD    544499058
        0x0800338c:    6425203d    = %d    DCD    1680154685
        0x08003390:    0a0d2e29    )...    DCD    168635945
        0x08003394:    00          .       DCB    0
    .L.str.10
        0x08003395:    574152      WAR     DCB    87,65,82
        0x08003398:    53203a4e    N: S    DCD    1394621006
        0x0800339c:    75746174    tatu    DCD    1970561396
        0x080033a0:    68732073    s sh    DCD    1752375411
        0x080033a4:    6520776f    ow e    DCD    1696626543
        0x080033a8:    726f7272    rror    DCD    1919906418
        0x080033ac:    25783028    (0x%    DCD    628633640
        0x080033b0:    0d2e2978    x)..    DCD    221129080
        0x080033b4:    000a        ..      DCW    10
    .L.str.3
        0x080033b6:    7953        Sy      DCW    31059
        0x080033b8:    6d657473    stem    DCD    1835365491
        0x080033bc:    61745320     Sta    DCD    1635013408
        0x080033c0:    3a737574    tus:    DCD    980645236
        0x080033c4:    6e695020     Pin    DCD    1852395552
        0x080033c8:    67          g       DCB    103
    .L.str.17
        0x080033c9:    0d0a00      ...     DCB    13,10,0
    .L.str.26
        0x080033cc:    78323025    %02x    DCD    2016555045
        0x080033d0:    00000000    ....    DCD    0
    Region$$Table$$Base
        0x080033d4:    08003404    .4..    DCD    134231044
        0x080033d8:    20000200    ...     DCD    536871424
        0x080033dc:    00000984    ....    DCD    2436
        0x080033e0:    08003344    D3..    DCD    134230852
        0x080033e4:    08003d90    .=..    DCD    134233488
        0x080033e8:    20000b90    ...     DCD    536873872
        0x080033ec:    00000008    ....    DCD    8
        0x080033f0:    08003344    D3..    DCD    134230852
        0x080033f4:    08003d98    .=..    DCD    134233496
        0x080033f8:    20000b98    ...     DCD    536873880
        0x080033fc:    00001004    ....    DCD    4100
        0x08003400:    08003354    T3..    DCD    134230868
    Region$$Table$$Limit

** Section #2 'MBL_CODE_SRAM' (SHT_PROGBITS) [SHF_ALLOC + SHF_EXECINSTR]
    Size   : 2436 bytes (alignment 4)
    Address: 0x20000200

    $t.11
    qspi_autopolling
        0x20000200:    b510        ..      PUSH     {r4,lr}
        0x20000202:    f6450400    E...    MOVW     r4,#0x5800
        0x20000206:    f2c40402    ....    MOVT     r4,#0x4002
        0x2000020a:    bf00        ..      NOP      
        0x2000020c:    6822        "h      LDR      r2,[r4,#0]
        0x2000020e:    0452        R.      LSLS     r2,r2,#17
        0x20000210:    bf44        D.      ITT      MI
        0x20000212:    6822        "h      LDRMI    r2,[r4,#0]
        0x20000214:    ea5f4242    _.BB    LSLSMI   r2,r2,#17
        0x20000218:    d505        ..      BPL      0x20000226 ; qspi_autopolling + 38
        0x2000021a:    6822        "h      LDR      r2,[r4,#0]
        0x2000021c:    0452        R.      LSLS     r2,r2,#17
        0x2000021e:    d502        ..      BPL      0x20000226 ; qspi_autopolling + 38
        0x20000220:    6822        "h      LDR      r2,[r4,#0]
        0x20000222:    0452        R.      LSLS     r2,r2,#17
        0x20000224:    d4f2        ..      BMI      0x2000020c ; qspi_autopolling + 12
        0x20000226:    680a        .h      LDR      r2,[r1,#0]
        0x20000228:    62a2        .b      STR      r2,[r4,#0x28]
        0x2000022a:    684a        Jh      LDR      r2,[r1,#4]
        0x2000022c:    6262        bb      STR      r2,[r4,#0x24]
        0x2000022e:    688a        .h      LDR      r2,[r1,#8]
        0x20000230:    62e2        .b      STR      r2,[r4,#0x2c]
        0x20000232:    6822        "h      LDR      r2,[r4,#0]
        0x20000234:    f4220c40    ".@.    BIC      r12,r2,#0xc00000
        0x20000238:    e9d13204    ...2    LDRD     r3,r2,[r1,#0x10]
        0x2000023c:    ea43030c    C...    ORR      r3,r3,r12
        0x20000240:    431a        .C      ORRS     r2,r2,r3
        0x20000242:    6022        "`      STR      r2,[r4,#0]
        0x20000244:    68c9        .h      LDR      r1,[r1,#0xc]
        0x20000246:    6281        .b      STR      r1,[r0,#0x28]
        0x20000248:    f04f6100    O..a    MOV      r1,#0x8000000
        0x2000024c:    f000f83c    ..<.    BL       qspi_config ; 0x200002c8
        0x20000250:    68a0        .h      LDR      r0,[r4,#8]
        0x20000252:    0700        ..      LSLS     r0,r0,#28
        0x20000254:    d409        ..      BMI      0x2000026a ; qspi_autopolling + 106
        0x20000256:    68a0        .h      LDR      r0,[r4,#8]
        0x20000258:    0700        ..      LSLS     r0,r0,#28
        0x2000025a:    bf5c        \.      ITT      PL
        0x2000025c:    68a0        .h      LDRPL    r0,[r4,#8]
        0x2000025e:    ea5f7000    _..p    LSLSPL   r0,r0,#28
        0x20000262:    d402        ..      BMI      0x2000026a ; qspi_autopolling + 106
        0x20000264:    68a0        .h      LDR      r0,[r4,#8]
        0x20000266:    0700        ..      LSLS     r0,r0,#28
        0x20000268:    d5f2        ..      BPL      0x20000250 ; qspi_autopolling + 80
        0x2000026a:    2008        .       MOVS     r0,#8
        0x2000026c:    60e0        .`      STR      r0,[r4,#0xc]
        0x2000026e:    bd10        ..      POP      {r4,pc}
    qspi_command
        0x20000270:    b5b0        ..      PUSH     {r4,r5,r7,lr}
        0x20000272:    f6450500    E...    MOVW     r5,#0x5800
        0x20000276:    4604        .F      MOV      r4,r0
        0x20000278:    f2c40502    ....    MOVT     r5,#0x4002
        0x2000027c:    6828        (h      LDR      r0,[r5,#0]
        0x2000027e:    0440        @.      LSLS     r0,r0,#17
        0x20000280:    bf44        D.      ITT      MI
        0x20000282:    6828        (h      LDRMI    r0,[r5,#0]
        0x20000284:    ea5f4040    _.@@    LSLSMI   r0,r0,#17
        0x20000288:    d505        ..      BPL      0x20000296 ; qspi_command + 38
        0x2000028a:    6828        (h      LDR      r0,[r5,#0]
        0x2000028c:    0440        @.      LSLS     r0,r0,#17
        0x2000028e:    d502        ..      BPL      0x20000296 ; qspi_command + 38
        0x20000290:    6828        (h      LDR      r0,[r5,#0]
        0x20000292:    0440        @.      LSLS     r0,r0,#17
        0x20000294:    d4f2        ..      BMI      0x2000027c ; qspi_command + 12
        0x20000296:    4620         F      MOV      r0,r4
        0x20000298:    2100        .!      MOVS     r1,#0
        0x2000029a:    f000f815    ....    BL       qspi_config ; 0x200002c8
        0x2000029e:    6a60        `j      LDR      r0,[r4,#0x24]
        0x200002a0:    2800        .(      CMP      r0,#0
        0x200002a2:    bf18        ..      IT       NE
        0x200002a4:    bdb0        ..      POPNE    {r4,r5,r7,pc}
        0x200002a6:    bf00        ..      NOP      
        0x200002a8:    68a8        .h      LDR      r0,[r5,#8]
        0x200002aa:    0780        ..      LSLS     r0,r0,#30
        0x200002ac:    bf5c        \.      ITT      PL
        0x200002ae:    68a8        .h      LDRPL    r0,[r5,#8]
        0x200002b0:    ea5f7080    _..p    LSLSPL   r0,r0,#30
        0x200002b4:    d405        ..      BMI      0x200002c2 ; qspi_command + 82
        0x200002b6:    68a8        .h      LDR      r0,[r5,#8]
        0x200002b8:    0780        ..      LSLS     r0,r0,#30
        0x200002ba:    d402        ..      BMI      0x200002c2 ; qspi_command + 82
        0x200002bc:    68a8        .h      LDR      r0,[r5,#8]
        0x200002be:    0780        ..      LSLS     r0,r0,#30
        0x200002c0:    d5f2        ..      BPL      0x200002a8 ; qspi_command + 56
        0x200002c2:    2002        .       MOVS     r0,#2
        0x200002c4:    60e8        .`      STR      r0,[r5,#0xc]
        0x200002c6:    bdb0        ..      POP      {r4,r5,r7,pc}
    qspi_config
        0x200002c8:    f6450c14    E...    MOV      r12,#0x5814
        0x200002cc:    f1b16f40    ..@o    CMP      r1,#0xc000000
        0x200002d0:    f2c40c02    ....    MOVT     r12,#0x4002
        0x200002d4:    d005        ..      BEQ      0x200002e2 ; qspi_config + 26
        0x200002d6:    6a42        Bj      LDR      r2,[r0,#0x24]
        0x200002d8:    b11a        ..      CBZ      r2,0x200002e2 ; qspi_config + 26
        0x200002da:    6a82        .j      LDR      r2,[r0,#0x28]
        0x200002dc:    3a01        .:      SUBS     r2,#1
        0x200002de:    f84c2c04    L..,    STR      r2,[r12,#-4]
        0x200002e2:    b570        p.      PUSH     {r4-r6,lr}
        0x200002e4:    6803        .h      LDR      r3,[r0,#0]
        0x200002e6:    6942        Bi      LDR      r2,[r0,#0x14]
        0x200002e8:    b32b        +.      CBZ      r3,0x20000336 ; qspi_config + 110
        0x200002ea:    2a00        .*      CMP      r2,#0
        0x200002ec:    d043        C.      BEQ      0x20000376 ; qspi_config + 174
        0x200002ee:    69c2        .i      LDR      r2,[r0,#0x1c]
        0x200002f0:    f8cc2008    ...     STR      r2,[r12,#8]
        0x200002f4:    f8d0e008    ....    LDR      lr,[r0,#8]
        0x200002f8:    e9d02308    ...#    LDRD     r2,r3,[r0,#0x20]
        0x200002fc:    6985        .i      LDR      r5,[r0,#0x18]
        0x200002fe:    6944        Di      LDR      r4,[r0,#0x14]
        0x20000300:    f1be0f00    ....    CMP      lr,#0
        0x20000304:    ea434282    C..B    ORR      r2,r3,r2,LSL #18
        0x20000308:    6ac3        .j      LDR      r3,[r0,#0x2c]
        0x2000030a:    ea420203    B...    ORR      r2,r2,r3
        0x2000030e:    ea420205    B...    ORR      r2,r2,r5
        0x20000312:    ea420204    B...    ORR      r2,r2,r4
        0x20000316:    d046        F.      BEQ      0x200003a6 ; qspi_config + 222
        0x20000318:    e9d03400    ...4    LDRD     r3,r4,[r0,#0]
        0x2000031c:    68c5        .h      LDR      r5,[r0,#0xc]
        0x2000031e:    430a        .C      ORRS     r2,r2,r1
        0x20000320:    ea42020e    B...    ORR      r2,r2,lr
        0x20000324:    432a        *C      ORRS     r2,r2,r5
        0x20000326:    431a        .C      ORRS     r2,r2,r3
        0x20000328:    4322        "C      ORRS     r2,r2,r4
        0x2000032a:    f1b16f40    ..@o    CMP      r1,#0xc000000
        0x2000032e:    f8cc2000    ...     STR      r2,[r12,#0]
        0x20000332:    d14e        N.      BNE      0x200003d2 ; qspi_config + 266
        0x20000334:    bd70        p.      POP      {r4-r6,pc}
        0x20000336:    b3da        ..      CBZ      r2,0x200003b0 ; qspi_config + 232
        0x20000338:    69c2        .i      LDR      r2,[r0,#0x1c]
        0x2000033a:    f8cc2008    ...     STR      r2,[r12,#8]
        0x2000033e:    6883        .h      LDR      r3,[r0,#8]
        0x20000340:    e9d02608    ...&    LDRD     r2,r6,[r0,#0x20]
        0x20000344:    6945        Ei      LDR      r5,[r0,#0x14]
        0x20000346:    6984        .i      LDR      r4,[r0,#0x18]
        0x20000348:    2b00        .+      CMP      r3,#0
        0x2000034a:    ea464282    F..B    ORR      r2,r6,r2,LSL #18
        0x2000034e:    6ac6        .j      LDR      r6,[r0,#0x2c]
        0x20000350:    ea420206    B...    ORR      r2,r2,r6
        0x20000354:    ea420205    B...    ORR      r2,r2,r5
        0x20000358:    ea420204    B...    ORR      r2,r2,r4
        0x2000035c:    d03d        =.      BEQ      0x200003da ; qspi_config + 274
        0x2000035e:    68c5        .h      LDR      r5,[r0,#0xc]
        0x20000360:    430a        .C      ORRS     r2,r2,r1
        0x20000362:    6806        .h      LDR      r6,[r0,#0]
        0x20000364:    431a        .C      ORRS     r2,r2,r3
        0x20000366:    432a        *C      ORRS     r2,r2,r5
        0x20000368:    4332        2C      ORRS     r2,r2,r6
        0x2000036a:    f1b16f40    ..@o    CMP      r1,#0xc000000
        0x2000036e:    f8cc2000    ...     STR      r2,[r12,#0]
        0x20000372:    d0df        ..      BEQ      0x20000334 ; qspi_config + 108
        0x20000374:    e02d        -.      B        0x200003d2 ; qspi_config + 266
        0x20000376:    6886        .h      LDR      r6,[r0,#8]
        0x20000378:    e9d05408    ...T    LDRD     r5,r4,[r0,#0x20]
        0x2000037c:    6ac2        .j      LDR      r2,[r0,#0x2c]
        0x2000037e:    2e00        ..      CMP      r6,#0
        0x20000380:    ea444585    D..E    ORR      r5,r4,r5,LSL #18
        0x20000384:    ea450e02    E...    ORR      lr,r5,r2
        0x20000388:    d02a        *.      BEQ      0x200003e0 ; qspi_config + 280
        0x2000038a:    430b        .C      ORRS     r3,r3,r1
        0x2000038c:    68c4        .h      LDR      r4,[r0,#0xc]
        0x2000038e:    4333        3C      ORRS     r3,r3,r6
        0x20000390:    6842        Bh      LDR      r2,[r0,#4]
        0x20000392:    ea43030e    C...    ORR      r3,r3,lr
        0x20000396:    4323        #C      ORRS     r3,r3,r4
        0x20000398:    431a        .C      ORRS     r2,r2,r3
        0x2000039a:    f1b16f40    ..@o    CMP      r1,#0xc000000
        0x2000039e:    f8cc2000    ...     STR      r2,[r12,#0]
        0x200003a2:    d0c7        ..      BEQ      0x20000334 ; qspi_config + 108
        0x200003a4:    e015        ..      B        0x200003d2 ; qspi_config + 266
        0x200003a6:    e9d03000    ...0    LDRD     r3,r0,[r0,#0]
        0x200003aa:    4311        .C      ORRS     r1,r1,r2
        0x200003ac:    4319        .C      ORRS     r1,r1,r3
        0x200003ae:    e01b        ..      B        0x200003e8 ; qspi_config + 288
        0x200003b0:    6882        .h      LDR      r2,[r0,#8]
        0x200003b2:    6a43        Cj      LDR      r3,[r0,#0x24]
        0x200003b4:    b1e2        ..      CBZ      r2,0x200003f0 ; qspi_config + 296
        0x200003b6:    6a06        .j      LDR      r6,[r0,#0x20]
        0x200003b8:    430b        .C      ORRS     r3,r3,r1
        0x200003ba:    431a        .C      ORRS     r2,r2,r3
        0x200003bc:    6ac5        .j      LDR      r5,[r0,#0x2c]
        0x200003be:    ea424286    B..B    ORR      r2,r2,r6,LSL #18
        0x200003c2:    68c3        .h      LDR      r3,[r0,#0xc]
        0x200003c4:    432a        *C      ORRS     r2,r2,r5
        0x200003c6:    431a        .C      ORRS     r2,r2,r3
        0x200003c8:    f1b16f40    ..@o    CMP      r1,#0xc000000
        0x200003cc:    f8cc2000    ...     STR      r2,[r12,#0]
        0x200003d0:    d0b0        ..      BEQ      0x20000334 ; qspi_config + 108
        0x200003d2:    6900        .i      LDR      r0,[r0,#0x10]
        0x200003d4:    f8cc0004    ....    STR      r0,[r12,#4]
        0x200003d8:    bd70        p.      POP      {r4-r6,pc}
        0x200003da:    6800        .h      LDR      r0,[r0,#0]
        0x200003dc:    4311        .C      ORRS     r1,r1,r2
        0x200003de:    e003        ..      B        0x200003e8 ; qspi_config + 288
        0x200003e0:    6840        @h      LDR      r0,[r0,#4]
        0x200003e2:    4319        .C      ORRS     r1,r1,r3
        0x200003e4:    ea41010e    A...    ORR      r1,r1,lr
        0x200003e8:    4308        .C      ORRS     r0,r0,r1
        0x200003ea:    f8cc0000    ....    STR      r0,[r12,#0]
        0x200003ee:    bd70        p.      POP      {r4-r6,pc}
        0x200003f0:    2b00        .+      CMP      r3,#0
        0x200003f2:    bf08        ..      IT       EQ
        0x200003f4:    bd70        p.      POPEQ    {r4-r6,pc}
        0x200003f6:    6a02        .j      LDR      r2,[r0,#0x20]
        0x200003f8:    4319        .C      ORRS     r1,r1,r3
        0x200003fa:    6ac0        .j      LDR      r0,[r0,#0x2c]
        0x200003fc:    ea414182    A..A    ORR      r1,r1,r2,LSL #18
        0x20000400:    4308        .C      ORRS     r0,r0,r1
        0x20000402:    f8cc0000    ....    STR      r0,[r12,#0]
        0x20000406:    bd70        p.      POP      {r4-r6,pc}
    qspi_flash_config
        0x20000408:    e92d4ff0    -..O    PUSH     {r4-r11,lr}
        0x2000040c:    b0a7        ..      SUB      sp,sp,#0x9c
        0x2000040e:    4604        .F      MOV      r4,r0
        0x20000410:    f44f6040    O.@`    MOV      r0,#0xc00
        0x20000414:    f000fba2    ....    BL       $Ven$TT$L$$rcu_periph_clock_enable ; 0x20000b5c
        0x20000418:    f6404001    @..@    MOV      r0,#0xc01
        0x2000041c:    f000fb9e    ....    BL       $Ven$TT$L$$rcu_periph_clock_enable ; 0x20000b5c
        0x20000420:    2500        .%      MOVS     r5,#0
        0x20000422:    f2c40502    ....    MOVT     r5,#0x4002
        0x20000426:    4628        (F      MOV      r0,r5
        0x20000428:    2103        .!      MOVS     r1,#3
        0x2000042a:    22f0        ."      MOVS     r2,#0xf0
        0x2000042c:    f04f0903    O...    MOV      r9,#3
        0x20000430:    f000fb99    ....    BL       $Ven$TT$L$$gpio_af_set ; 0x20000b66
        0x20000434:    4628        (F      MOV      r0,r5
        0x20000436:    2102        .!      MOVS     r1,#2
        0x20000438:    2200        ."      MOVS     r2,#0
        0x2000043a:    23f0        .#      MOVS     r3,#0xf0
        0x2000043c:    2702        .'      MOVS     r7,#2
        0x2000043e:    2600        .&      MOVS     r6,#0
        0x20000440:    f000fb96    ....    BL       $Ven$TT$L$$gpio_mode_set ; 0x20000b70
        0x20000444:    4628        (F      MOV      r0,r5
        0x20000446:    2100        .!      MOVS     r1,#0
        0x20000448:    2202        ."      MOVS     r2,#2
        0x2000044a:    23f0        .#      MOVS     r3,#0xf0
        0x2000044c:    f000fb95    ....    BL       $Ven$TT$L$$gpio_output_options_set ; 0x20000b7a
        0x20000450:    f5056580    ...e    ADD      r5,r5,#0x400
        0x20000454:    4628        (F      MOV      r0,r5
        0x20000456:    2103        .!      MOVS     r1,#3
        0x20000458:    2218        ."      MOVS     r2,#0x18
        0x2000045a:    f000fb84    ....    BL       $Ven$TT$L$$gpio_af_set ; 0x20000b66
        0x2000045e:    4628        (F      MOV      r0,r5
        0x20000460:    2102        .!      MOVS     r1,#2
        0x20000462:    2200        ."      MOVS     r2,#0
        0x20000464:    2318        .#      MOVS     r3,#0x18
        0x20000466:    f000fb83    ....    BL       $Ven$TT$L$$gpio_mode_set ; 0x20000b70
        0x2000046a:    4628        (F      MOV      r0,r5
        0x2000046c:    2100        .!      MOVS     r1,#0
        0x2000046e:    2202        ."      MOVS     r2,#2
        0x20000470:    2318        .#      MOVS     r3,#0x18
        0x20000472:    f000fb82    ....    BL       $Ven$TT$L$$gpio_output_options_set ; 0x20000b7a
        0x20000476:    f6406001    @..`    MOV      r0,#0xe01
        0x2000047a:    f000fb6f    ..o.    BL       $Ven$TT$L$$rcu_periph_clock_enable ; 0x20000b5c
        0x2000047e:    2004        .       MOVS     r0,#4
        0x20000480:    9401        ..      STR      r4,[sp,#4]
        0x20000482:    9002        ..      STR      r0,[sp,#8]
        0x20000484:    f04f0a10    O...    MOV      r10,#0x10
        0x20000488:    2017        .       MOVS     r0,#0x17
        0x2000048a:    f8cda00c    ....    STR      r10,[sp,#0xc]
        0x2000048e:    e9cd0604    ....    STRD     r0,r6,[sp,#0x10]
        0x20000492:    a801        ..      ADD      r0,sp,#4
        0x20000494:    9606        ..      STR      r6,[sp,#0x18]
        0x20000496:    f000f9b1    ....    BL       qspi_init ; 0x200007fc
        0x2000049a:    f44f7880    O..x    MOV      r8,#0x100
        0x2000049e:    209f        .       MOVS     r0,#0x9f
        0x200004a0:    9614        ..      STR      r6,[sp,#0x50]
        0x200004a2:    f88d604f    ..O`    STRB     r6,[sp,#0x4f]
        0x200004a6:    e9cd6621    ..!f    STRD     r6,r6,[sp,#0x84]
        0x200004aa:    e9cd661f    ...f    STRD     r6,r6,[sp,#0x7c]
        0x200004ae:    e9cd661d    ...f    STRD     r6,r6,[sp,#0x74]
        0x200004b2:    f8cd806c    ..l.    STR      r8,[sp,#0x6c]
        0x200004b6:    901c        ..      STR      r0,[sp,#0x70]
        0x200004b8:    f04f7b80    O..{    MOV      r11,#0x1000000
        0x200004bc:    a81b        ..      ADD      r0,sp,#0x6c
        0x200004be:    9623        #.      STR      r6,[sp,#0x8c]
        0x200004c0:    e9cdb924    ..$.    STRD     r11,r9,[sp,#0x90]
        0x200004c4:    9626        &.      STR      r6,[sp,#0x98]
        0x200004c6:    f7fffed3    ....    BL       qspi_command ; 0x20000270
        0x200004ca:    a814        ..      ADD      r0,sp,#0x50
        0x200004cc:    f000f9dc    ....    BL       qspi_receive ; 0x20000888
        0x200004d0:    2006        .       MOVS     r0,#6
        0x200004d2:    ac1b        ..      ADD      r4,sp,#0x6c
        0x200004d4:    f8cd806c    ..l.    STR      r8,[sp,#0x6c]
        0x200004d8:    e9cd061c    ....    STRD     r0,r6,[sp,#0x70]
        0x200004dc:    f44f5900    O..Y    MOV      r9,#0x2000
        0x200004e0:    4620         F      MOV      r0,r4
        0x200004e2:    9626        &.      STR      r6,[sp,#0x98]
        0x200004e4:    e9cd6624    ..$f    STRD     r6,r6,[sp,#0x90]
        0x200004e8:    e9cd6622    .."f    STRD     r6,r6,[sp,#0x88]
        0x200004ec:    e9cd6620    .. f    STRD     r6,r6,[sp,#0x80]
        0x200004f0:    e9cd961e    ....    STRD     r9,r6,[sp,#0x78]
        0x200004f4:    f7fffebc    ....    BL       qspi_command ; 0x20000270
        0x200004f8:    2501        .%      MOVS     r5,#1
        0x200004fa:    f44f0080    O...    MOV      r0,#0x400000
        0x200004fe:    e9cd7707    ...w    STRD     r7,r7,[sp,#0x1c]
        0x20000502:    960b        ..      STR      r6,[sp,#0x2c]
        0x20000504:    e9cda509    ....    STRD     r10,r5,[sp,#0x24]
        0x20000508:    900c        ..      STR      r0,[sp,#0x30]
        0x2000050a:    2705        .'      MOVS     r7,#5
        0x2000050c:    a907        ..      ADD      r1,sp,#0x1c
        0x2000050e:    4620         F      MOV      r0,r4
        0x20000510:    971c        ..      STR      r7,[sp,#0x70]
        0x20000512:    f8cdb090    ....    STR      r11,[sp,#0x90]
        0x20000516:    f7fffe73    ..s.    BL       qspi_autopolling ; 0x20000200
        0x2000051a:    ac07        ..      ADD      r4,sp,#0x1c
        0x2000051c:    4620         F      MOV      r0,r4
        0x2000051e:    e9cd6909    ...i    STRD     r6,r9,[sp,#0x24]
        0x20000522:    e9cd660d    ...f    STRD     r6,r6,[sp,#0x34]
        0x20000526:    e9cd660b    ...f    STRD     r6,r6,[sp,#0x2c]
        0x2000052a:    e9cd6b0f    ...k    STRD     r6,r11,[sp,#0x3c]
        0x2000052e:    e9cd5611    ...V    STRD     r5,r6,[sp,#0x44]
        0x20000532:    e9cd8707    ....    STRD     r8,r7,[sp,#0x1c]
        0x20000536:    f7fffe9b    ....    BL       qspi_command ; 0x20000270
        0x2000053a:    f10d054f    ..O.    ADD      r5,sp,#0x4f
        0x2000053e:    4628        (F      MOV      r0,r5
        0x20000540:    f000f9a2    ....    BL       qspi_receive ; 0x20000888
        0x20000544:    2035        5       MOVS     r0,#0x35
        0x20000546:    f89d604f    ..O`    LDRB     r6,[sp,#0x4f]
        0x2000054a:    9008        ..      STR      r0,[sp,#0x20]
        0x2000054c:    4620         F      MOV      r0,r4
        0x2000054e:    f7fffe8f    ....    BL       qspi_command ; 0x20000270
        0x20000552:    4628        (F      MOV      r0,r5
        0x20000554:    f000f998    ....    BL       qspi_receive ; 0x20000888
        0x20000558:    f89d004f    ..O.    LDRB     r0,[sp,#0x4f]
        0x2000055c:    ea462100    F..!    ORR      r1,r6,r0,LSL #8
        0x20000560:    0782        ..      LSLS     r2,r0,#30
        0x20000562:    f8ad104c    ..L.    STRH     r1,[sp,#0x4c]
        0x20000566:    d43b        ;.      BMI      0x200005e0 ; qspi_flash_config + 472
        0x20000568:    f89d2052    ..R     LDRB     r2,[sp,#0x52]
        0x2000056c:    3a16        .:      SUBS     r2,r2,#0x16
        0x2000056e:    2a02        .*      CMP      r2,#2
        0x20000570:    d806        ..      BHI      0x20000580 ; qspi_flash_config + 376
        0x20000572:    f0400002    @...    ORR      r0,r0,#2
        0x20000576:    f8ad004c    ..L.    STRH     r0,[sp,#0x4c]
        0x2000057a:    2031        1       MOVS     r0,#0x31
        0x2000057c:    9008        ..      STR      r0,[sp,#0x20]
        0x2000057e:    e007        ..      B        0x20000590 ; qspi_flash_config + 392
        0x20000580:    f4417000    A..p    ORR      r0,r1,#0x200
        0x20000584:    f8ad004c    ..L.    STRH     r0,[sp,#0x4c]
        0x20000588:    2001        .       MOVS     r0,#1
        0x2000058a:    9008        ..      STR      r0,[sp,#0x20]
        0x2000058c:    2002        .       MOVS     r0,#2
        0x2000058e:    9011        ..      STR      r0,[sp,#0x44]
        0x20000590:    a807        ..      ADD      r0,sp,#0x1c
        0x20000592:    f7fffe6d    ..m.    BL       qspi_command ; 0x20000270
        0x20000596:    a813        ..      ADD      r0,sp,#0x4c
        0x20000598:    f000fa3a    ..:.    BL       qspi_transmit ; 0x20000a10
        0x2000059c:    f44f7080    O..p    MOV      r0,#0x100
        0x200005a0:    901b        ..      STR      r0,[sp,#0x6c]
        0x200005a2:    2005        .       MOVS     r0,#5
        0x200005a4:    901c        ..      STR      r0,[sp,#0x70]
        0x200005a6:    2000        .       MOVS     r0,#0
        0x200005a8:    f44f5100    O..Q    MOV      r1,#0x2000
        0x200005ac:    901d        ..      STR      r0,[sp,#0x74]
        0x200005ae:    e9cd0022    ..".    STRD     r0,r0,[sp,#0x88]
        0x200005b2:    e9cd0020    .. .    STRD     r0,r0,[sp,#0x80]
        0x200005b6:    e9cd101e    ....    STRD     r1,r0,[sp,#0x78]
        0x200005ba:    f04f7180    O..q    MOV      r1,#0x1000000
        0x200005be:    e9cd1024    ..$.    STRD     r1,r0,[sp,#0x90]
        0x200005c2:    2101        .!      MOVS     r1,#1
        0x200005c4:    9026        &.      STR      r0,[sp,#0x98]
        0x200005c6:    9015        ..      STR      r0,[sp,#0x54]
        0x200005c8:    9116        ..      STR      r1,[sp,#0x58]
        0x200005ca:    e9cd1018    ....    STRD     r1,r0,[sp,#0x60]
        0x200005ce:    2010        .       MOVS     r0,#0x10
        0x200005d0:    9017        ..      STR      r0,[sp,#0x5c]
        0x200005d2:    f44f0080    O...    MOV      r0,#0x400000
        0x200005d6:    901a        ..      STR      r0,[sp,#0x68]
        0x200005d8:    a81b        ..      ADD      r0,sp,#0x6c
        0x200005da:    a915        ..      ADD      r1,sp,#0x54
        0x200005dc:    f7fffe10    ....    BL       qspi_autopolling ; 0x20000200
        0x200005e0:    f6450000    E...    MOVW     r0,#0x5800
        0x200005e4:    f2c40002    ....    MOVT     r0,#0x4002
        0x200005e8:    6801        .h      LDR      r1,[r0,#0]
        0x200005ea:    0449        I.      LSLS     r1,r1,#17
        0x200005ec:    d509        ..      BPL      0x20000602 ; qspi_flash_config + 506
        0x200005ee:    6801        .h      LDR      r1,[r0,#0]
        0x200005f0:    0449        I.      LSLS     r1,r1,#17
        0x200005f2:    bf44        D.      ITT      MI
        0x200005f4:    6801        .h      LDRMI    r1,[r0,#0]
        0x200005f6:    ea5f4141    _.AA    LSLSMI   r1,r1,#17
        0x200005fa:    d502        ..      BPL      0x20000602 ; qspi_flash_config + 506
        0x200005fc:    6801        .h      LDR      r1,[r0,#0]
        0x200005fe:    0449        I.      LSLS     r1,r1,#17
        0x20000600:    d4f2        ..      BMI      0x200005e8 ; qspi_flash_config + 480
        0x20000602:    f64e51eb    N..Q    MOV      r1,#0xedeb
        0x20000606:    f2c03110    ...1    MOVT     r1,#0x310
        0x2000060a:    f8c01084    ....    STR      r1,[r0,#0x84]
        0x2000060e:    b027        '.      ADD      sp,sp,#0x9c
        0x20000610:    e8bd8ff0    ....    POP      {r4-r11,pc}
    qspi_flash_page_program
        0x20000614:    e92d4ff0    -..O    PUSH     {r4-r11,lr}
        0x20000618:    b09f        ..      SUB      sp,sp,#0x7c
        0x2000061a:    4606        .F      MOV      r6,r0
        0x2000061c:    f44f7080    O..p    MOV      r0,#0x100
        0x20000620:    9013        ..      STR      r0,[sp,#0x4c]
        0x20000622:    2006        .       MOVS     r0,#6
        0x20000624:    af13        ..      ADD      r7,sp,#0x4c
        0x20000626:    9014        ..      STR      r0,[sp,#0x50]
        0x20000628:    2400        .$      MOVS     r4,#0
        0x2000062a:    f44f5a00    O..Z    MOV      r10,#0x2000
        0x2000062e:    4638        8F      MOV      r0,r7
        0x20000630:    4693        .F      MOV      r11,r2
        0x20000632:    9100        ..      STR      r1,[sp,#0]
        0x20000634:    9415        ..      STR      r4,[sp,#0x54]
        0x20000636:    941e        ..      STR      r4,[sp,#0x78]
        0x20000638:    e9cd441c    ...D    STRD     r4,r4,[sp,#0x70]
        0x2000063c:    e9cd441a    ...D    STRD     r4,r4,[sp,#0x68]
        0x20000640:    e9cd4418    ...D    STRD     r4,r4,[sp,#0x60]
        0x20000644:    e9cda416    ....    STRD     r10,r4,[sp,#0x58]
        0x20000648:    f7fffe12    ....    BL       qspi_command ; 0x20000270
        0x2000064c:    2002        .       MOVS     r0,#2
        0x2000064e:    e9cd0001    ....    STRD     r0,r0,[sp,#4]
        0x20000652:    2501        .%      MOVS     r5,#1
        0x20000654:    2010        .       MOVS     r0,#0x10
        0x20000656:    9405        ..      STR      r4,[sp,#0x14]
        0x20000658:    9504        ..      STR      r5,[sp,#0x10]
        0x2000065a:    9003        ..      STR      r0,[sp,#0xc]
        0x2000065c:    f44f0080    O...    MOV      r0,#0x400000
        0x20000660:    9006        ..      STR      r0,[sp,#0x18]
        0x20000662:    f04f0805    O...    MOV      r8,#5
        0x20000666:    f04f7980    O..y    MOV      r9,#0x1000000
        0x2000066a:    a901        ..      ADD      r1,sp,#4
        0x2000066c:    4638        8F      MOV      r0,r7
        0x2000066e:    f8cd8050    ..P.    STR      r8,[sp,#0x50]
        0x20000672:    f8cd9070    ..p.    STR      r9,[sp,#0x70]
        0x20000676:    f7fffdc3    ....    BL       qspi_autopolling ; 0x20000200
        0x2000067a:    f44f7080    O..p    MOV      r0,#0x100
        0x2000067e:    9001        ..      STR      r0,[sp,#4]
        0x20000680:    2032        2       MOVS     r0,#0x32
        0x20000682:    9002        ..      STR      r0,[sp,#8]
        0x20000684:    f44f6080    O..`    MOV      r0,#0x400
        0x20000688:    e9cd0a03    ....    STRD     r0,r10,[sp,#0xc]
        0x2000068c:    f04f7040    O.@p    MOV      r0,#0x3000000
        0x20000690:    9409        ..      STR      r4,[sp,#0x24]
        0x20000692:    e9cd4407    ...D    STRD     r4,r4,[sp,#0x1c]
        0x20000696:    e9cd6405    ...d    STRD     r6,r4,[sp,#0x14]
        0x2000069a:    e9cd0b0a    ....    STRD     r0,r11,[sp,#0x28]
        0x2000069e:    a801        ..      ADD      r0,sp,#4
        0x200006a0:    f44f7780    O..w    MOV      r7,#0x100
        0x200006a4:    940c        ..      STR      r4,[sp,#0x30]
        0x200006a6:    f7fffde3    ....    BL       qspi_command ; 0x20000270
        0x200006aa:    9800        ..      LDR      r0,[sp,#0]
        0x200006ac:    f000f9b0    ....    BL       qspi_transmit ; 0x20000a10
        0x200006b0:    2010        .       MOVS     r0,#0x10
        0x200006b2:    e9cd7813    ...x    STRD     r7,r8,[sp,#0x4c]
        0x200006b6:    e9cd4a15    ...J    STRD     r4,r10,[sp,#0x54]
        0x200006ba:    e9cd4419    ...D    STRD     r4,r4,[sp,#0x64]
        0x200006be:    e9cd4417    ...D    STRD     r4,r4,[sp,#0x5c]
        0x200006c2:    e9cd491b    ...I    STRD     r4,r9,[sp,#0x6c]
        0x200006c6:    e9cd441d    ...D    STRD     r4,r4,[sp,#0x74]
        0x200006ca:    e9cd450d    ...E    STRD     r4,r5,[sp,#0x34]
        0x200006ce:    e9cd5410    ...T    STRD     r5,r4,[sp,#0x40]
        0x200006d2:    900f        ..      STR      r0,[sp,#0x3c]
        0x200006d4:    f44f0080    O...    MOV      r0,#0x400000
        0x200006d8:    9012        ..      STR      r0,[sp,#0x48]
        0x200006da:    a813        ..      ADD      r0,sp,#0x4c
        0x200006dc:    a90d        ..      ADD      r1,sp,#0x34
        0x200006de:    f7fffd8f    ....    BL       qspi_autopolling ; 0x20000200
        0x200006e2:    2000        .       MOVS     r0,#0
        0x200006e4:    b01f        ..      ADD      sp,sp,#0x7c
        0x200006e6:    e8bd8ff0    ....    POP      {r4-r11,pc}
        0x200006ea:    0000        ..      MOVS     r0,r0
    qspi_flash_read
        0x200006ec:    b510        ..      PUSH     {r4,lr}
        0x200006ee:    b08c        ..      SUB      sp,sp,#0x30
        0x200006f0:    460c        .F      MOV      r4,r1
        0x200006f2:    f44f7180    O..q    MOV      r1,#0x100
        0x200006f6:    9100        ..      STR      r1,[sp,#0]
        0x200006f8:    21eb        .!      MOVS     r1,#0xeb
        0x200006fa:    9101        ..      STR      r1,[sp,#4]
        0x200006fc:    f44f6140    O.@a    MOV      r1,#0xc00
        0x20000700:    9102        ..      STR      r1,[sp,#8]
        0x20000702:    f44f5100    O..Q    MOV      r1,#0x2000
        0x20000706:    e9cd1003    ....    STRD     r1,r0,[sp,#0xc]
        0x2000070a:    f44f4040    O.@@    MOV      r0,#0xc000
        0x2000070e:    9005        ..      STR      r0,[sp,#0x14]
        0x20000710:    2000        .       MOVS     r0,#0
        0x20000712:    2104        .!      MOVS     r1,#4
        0x20000714:    e9cd0006    ....    STRD     r0,r0,[sp,#0x18]
        0x20000718:    9108        ..      STR      r1,[sp,#0x20]
        0x2000071a:    f04f7140    O.@q    MOV      r1,#0x3000000
        0x2000071e:    e9cd1209    ....    STRD     r1,r2,[sp,#0x24]
        0x20000722:    900b        ..      STR      r0,[sp,#0x2c]
        0x20000724:    4668        hF      MOV      r0,sp
        0x20000726:    f7fffda3    ....    BL       qspi_command ; 0x20000270
        0x2000072a:    4620         F      MOV      r0,r4
        0x2000072c:    f000f8ac    ....    BL       qspi_receive ; 0x20000888
        0x20000730:    2000        .       MOVS     r0,#0
        0x20000732:    b00c        ..      ADD      sp,sp,#0x30
        0x20000734:    bd10        ..      POP      {r4,pc}
        0x20000736:    0000        ..      MOVS     r0,r0
    qspi_flash_sector_erase
        0x20000738:    e92d4ff0    -..O    PUSH     {r4-r11,lr}
        0x2000073c:    b09f        ..      SUB      sp,sp,#0x7c
        0x2000073e:    4604        .F      MOV      r4,r0
        0x20000740:    f44f7880    O..x    MOV      r8,#0x100
        0x20000744:    2006        .       MOVS     r0,#6
        0x20000746:    ad13        ..      ADD      r5,sp,#0x4c
        0x20000748:    f8cd804c    ..L.    STR      r8,[sp,#0x4c]
        0x2000074c:    9014        ..      STR      r0,[sp,#0x50]
        0x2000074e:    2600        .&      MOVS     r6,#0
        0x20000750:    f44f5900    O..Y    MOV      r9,#0x2000
        0x20000754:    4628        (F      MOV      r0,r5
        0x20000756:    9615        ..      STR      r6,[sp,#0x54]
        0x20000758:    961e        ..      STR      r6,[sp,#0x78]
        0x2000075a:    e9cd661c    ...f    STRD     r6,r6,[sp,#0x70]
        0x2000075e:    e9cd661a    ...f    STRD     r6,r6,[sp,#0x68]
        0x20000762:    e9cd6618    ...f    STRD     r6,r6,[sp,#0x60]
        0x20000766:    e9cd9616    ....    STRD     r9,r6,[sp,#0x58]
        0x2000076a:    f7fffd81    ....    BL       qspi_command ; 0x20000270
        0x2000076e:    2002        .       MOVS     r0,#2
        0x20000770:    e9cd0001    ....    STRD     r0,r0,[sp,#4]
        0x20000774:    2701        .'      MOVS     r7,#1
        0x20000776:    2010        .       MOVS     r0,#0x10
        0x20000778:    9605        ..      STR      r6,[sp,#0x14]
        0x2000077a:    9704        ..      STR      r7,[sp,#0x10]
        0x2000077c:    9003        ..      STR      r0,[sp,#0xc]
        0x2000077e:    f44f0080    O...    MOV      r0,#0x400000
        0x20000782:    9006        ..      STR      r0,[sp,#0x18]
        0x20000784:    f04f0b05    O...    MOV      r11,#5
        0x20000788:    f04f7a80    O..z    MOV      r10,#0x1000000
        0x2000078c:    a901        ..      ADD      r1,sp,#4
        0x2000078e:    4628        (F      MOV      r0,r5
        0x20000790:    f8cdb050    ..P.    STR      r11,[sp,#0x50]
        0x20000794:    f8cda070    ..p.    STR      r10,[sp,#0x70]
        0x20000798:    f7fffd32    ..2.    BL       qspi_autopolling ; 0x20000200
        0x2000079c:    2020                MOVS     r0,#0x20
        0x2000079e:    f8cd8004    ....    STR      r8,[sp,#4]
        0x200007a2:    9002        ..      STR      r0,[sp,#8]
        0x200007a4:    f44f6080    O..`    MOV      r0,#0x400
        0x200007a8:    e9cd0903    ....    STRD     r0,r9,[sp,#0xc]
        0x200007ac:    a801        ..      ADD      r0,sp,#4
        0x200007ae:    e9cd660b    ...f    STRD     r6,r6,[sp,#0x2c]
        0x200007b2:    e9cd6609    ...f    STRD     r6,r6,[sp,#0x24]
        0x200007b6:    e9cd6607    ...f    STRD     r6,r6,[sp,#0x1c]
        0x200007ba:    e9cd4605    ...F    STRD     r4,r6,[sp,#0x14]
        0x200007be:    f7fffd57    ..W.    BL       qspi_command ; 0x20000270
        0x200007c2:    2010        .       MOVS     r0,#0x10
        0x200007c4:    e9cd8b13    ....    STRD     r8,r11,[sp,#0x4c]
        0x200007c8:    e9cd6915    ...i    STRD     r6,r9,[sp,#0x54]
        0x200007cc:    e9cd6619    ...f    STRD     r6,r6,[sp,#0x64]
        0x200007d0:    e9cd6617    ...f    STRD     r6,r6,[sp,#0x5c]
        0x200007d4:    e9cd6a1b    ...j    STRD     r6,r10,[sp,#0x6c]
        0x200007d8:    e9cd661d    ...f    STRD     r6,r6,[sp,#0x74]
        0x200007dc:    e9cd670d    ...g    STRD     r6,r7,[sp,#0x34]
        0x200007e0:    e9cd7610    ...v    STRD     r7,r6,[sp,#0x40]
        0x200007e4:    900f        ..      STR      r0,[sp,#0x3c]
        0x200007e6:    f44f0080    O...    MOV      r0,#0x400000
        0x200007ea:    9012        ..      STR      r0,[sp,#0x48]
        0x200007ec:    a813        ..      ADD      r0,sp,#0x4c
        0x200007ee:    a90d        ..      ADD      r1,sp,#0x34
        0x200007f0:    f7fffd06    ....    BL       qspi_autopolling ; 0x20000200
        0x200007f4:    2000        .       MOVS     r0,#0
        0x200007f6:    b01f        ..      ADD      sp,sp,#0x7c
        0x200007f8:    e8bd8ff0    ....    POP      {r4-r11,pc}
    qspi_init
        0x200007fc:    b580        ..      PUSH     {r7,lr}
        0x200007fe:    f6450100    E...    MOVW     r1,#0x5800
        0x20000802:    f2c40102    ....    MOVT     r1,#0x4002
        0x20000806:    f8d1c000    ....    LDR      r12,[r1,#0]
        0x2000080a:    f8d1e000    ....    LDR      lr,[r1,#0]
        0x2000080e:    6842        Bh      LDR      r2,[r0,#4]
        0x20000810:    f06f03ff    o...    MVN      r3,#0xff
        0x20000814:    eb032202    ..."    ADD      r2,r3,r2,LSL #8
        0x20000818:    ea2c030e    ,...    BIC      r3,r12,lr
        0x2000081c:    431a        .C      ORRS     r2,r2,r3
        0x2000081e:    600a        .`      STR      r2,[r1,#0]
        0x20000820:    680a        .h      LDR      r2,[r1,#0]
        0x20000822:    0452        R.      LSLS     r2,r2,#17
        0x20000824:    d509        ..      BPL      0x2000083a ; qspi_init + 62
        0x20000826:    680a        .h      LDR      r2,[r1,#0]
        0x20000828:    0452        R.      LSLS     r2,r2,#17
        0x2000082a:    bf44        D.      ITT      MI
        0x2000082c:    680a        .h      LDRMI    r2,[r1,#0]
        0x2000082e:    ea5f4242    _.BB    LSLSMI   r2,r2,#17
        0x20000832:    d502        ..      BPL      0x2000083a ; qspi_init + 62
        0x20000834:    680a        .h      LDR      r2,[r1,#0]
        0x20000836:    0452        R.      LSLS     r2,r2,#17
        0x20000838:    d4f2        ..      BMI      0x20000820 ; qspi_init + 36
        0x2000083a:    680a        .h      LDR      r2,[r1,#0]
        0x2000083c:    f64f73ef    O..s    MOV      r3,#0xffef
        0x20000840:    f2c003ff    ....    MOVT     r3,#0xff
        0x20000844:    ea020c03    ....    AND      r12,r2,r3
        0x20000848:    6883        .h      LDR      r3,[r0,#8]
        0x2000084a:    6802        .h      LDR      r2,[r0,#0]
        0x2000084c:    ea43030c    C...    ORR      r3,r3,r12
        0x20000850:    ea436202    C..b    ORR      r2,r3,r2,LSL #24
        0x20000854:    f64f03fe    O...    MOV      r3,#0xf8fe
        0x20000858:    600a        .`      STR      r2,[r1,#0]
        0x2000085a:    684a        Jh      LDR      r2,[r1,#4]
        0x2000085c:    f6cf73e0    ...s    MOVT     r3,#0xffe0
        0x20000860:    ea020c03    ....    AND      r12,r2,r3
        0x20000864:    e9d03203    ...2    LDRD     r3,r2,[r0,#0xc]
        0x20000868:    6940        @i      LDR      r0,[r0,#0x14]
        0x2000086a:    ea42020c    B...    ORR      r2,r2,r12
        0x2000086e:    ea424203    B..B    ORR      r2,r2,r3,LSL #16
        0x20000872:    4310        .C      ORRS     r0,r0,r2
        0x20000874:    6048        H`      STR      r0,[r1,#4]
        0x20000876:    6808        .h      LDR      r0,[r1,#0]
        0x20000878:    f0400001    @...    ORR      r0,r0,#1
        0x2000087c:    6008        .`      STR      r0,[r1,#0]
        0x2000087e:    6888        .h      LDR      r0,[r1,#8]
        0x20000880:    f0400040    @.@.    ORR      r0,r0,#0x40
        0x20000884:    6088        .`      STR      r0,[r1,#8]
        0x20000886:    bd80        ..      POP      {r7,pc}
    qspi_receive
        0x20000888:    b510        ..      PUSH     {r4,lr}
        0x2000088a:    f6450108    E...    MOV      r1,#0x5808
        0x2000088e:    f2c40102    ....    MOVT     r1,#0x4002
        0x20000892:    f8d1e008    ....    LDR      lr,[r1,#8]
        0x20000896:    f8d1c010    ....    LDR      r12,[r1,#0x10]
        0x2000089a:    68cb        .h      LDR      r3,[r1,#0xc]
        0x2000089c:    2401        .$      MOVS     r4,#1
        0x2000089e:    f11e0201    ....    ADDS     r2,lr,#1
        0x200008a2:    f364639b    d..c    BFI      r3,r4,#26,#2
        0x200008a6:    60cb        .`      STR      r3,[r1,#0xc]
        0x200008a8:    f8c1c010    ....    STR      r12,[r1,#0x10]
        0x200008ac:    d06a        j.      BEQ      0x20000984 ; qspi_receive + 252
        0x200008ae:    f0120c03    ....    ANDS     r12,r2,#3
        0x200008b2:    d018        ..      BEQ      0x200008e6 ; qspi_receive + 94
        0x200008b4:    680a        .h      LDR      r2,[r1,#0]
        0x200008b6:    f0120f06    ....    TST      r2,#6
        0x200008ba:    d10b        ..      BNE      0x200008d4 ; qspi_receive + 76
        0x200008bc:    680a        .h      LDR      r2,[r1,#0]
        0x200008be:    f0120f06    ....    TST      r2,#6
        0x200008c2:    d107        ..      BNE      0x200008d4 ; qspi_receive + 76
        0x200008c4:    680a        .h      LDR      r2,[r1,#0]
        0x200008c6:    f0120f06    ....    TST      r2,#6
        0x200008ca:    d103        ..      BNE      0x200008d4 ; qspi_receive + 76
        0x200008cc:    680a        .h      LDR      r2,[r1,#0]
        0x200008ce:    f0120f06    ....    TST      r2,#6
        0x200008d2:    d0ef        ..      BEQ      0x200008b4 ; qspi_receive + 44
        0x200008d4:    7e0b        .~      LDRB     r3,[r1,#0x18]
        0x200008d6:    4602        .F      MOV      r2,r0
        0x200008d8:    f8023b01    ...;    STRB     r3,[r2],#1
        0x200008dc:    f1bc0f01    ....    CMP      r12,#1
        0x200008e0:    d160        `.      BNE      0x200009a4 ; qspi_receive + 284
        0x200008e2:    4610        .F      MOV      r0,r2
        0x200008e4:    4672        rF      MOV      r2,lr
        0x200008e6:    f1be0f03    ....    CMP      lr,#3
        0x200008ea:    d34b        K.      BCC      0x20000984 ; qspi_receive + 252
        0x200008ec:    680b        .h      LDR      r3,[r1,#0]
        0x200008ee:    f0130f06    ....    TST      r3,#6
        0x200008f2:    d10b        ..      BNE      0x2000090c ; qspi_receive + 132
        0x200008f4:    680b        .h      LDR      r3,[r1,#0]
        0x200008f6:    f0130f06    ....    TST      r3,#6
        0x200008fa:    d107        ..      BNE      0x2000090c ; qspi_receive + 132
        0x200008fc:    680b        .h      LDR      r3,[r1,#0]
        0x200008fe:    f0130f06    ....    TST      r3,#6
        0x20000902:    d103        ..      BNE      0x2000090c ; qspi_receive + 132
        0x20000904:    680b        .h      LDR      r3,[r1,#0]
        0x20000906:    f0130f06    ....    TST      r3,#6
        0x2000090a:    d0ef        ..      BEQ      0x200008ec ; qspi_receive + 100
        0x2000090c:    7e0b        .~      LDRB     r3,[r1,#0x18]
        0x2000090e:    7003        .p      STRB     r3,[r0,#0]
        0x20000910:    680b        .h      LDR      r3,[r1,#0]
        0x20000912:    f0130f06    ....    TST      r3,#6
        0x20000916:    d10b        ..      BNE      0x20000930 ; qspi_receive + 168
        0x20000918:    680b        .h      LDR      r3,[r1,#0]
        0x2000091a:    f0130f06    ....    TST      r3,#6
        0x2000091e:    d107        ..      BNE      0x20000930 ; qspi_receive + 168
        0x20000920:    680b        .h      LDR      r3,[r1,#0]
        0x20000922:    f0130f06    ....    TST      r3,#6
        0x20000926:    d103        ..      BNE      0x20000930 ; qspi_receive + 168
        0x20000928:    680b        .h      LDR      r3,[r1,#0]
        0x2000092a:    f0130f06    ....    TST      r3,#6
        0x2000092e:    d0ef        ..      BEQ      0x20000910 ; qspi_receive + 136
        0x20000930:    7e0b        .~      LDRB     r3,[r1,#0x18]
        0x20000932:    7043        Cp      STRB     r3,[r0,#1]
        0x20000934:    680b        .h      LDR      r3,[r1,#0]
        0x20000936:    f0130f06    ....    TST      r3,#6
        0x2000093a:    d10b        ..      BNE      0x20000954 ; qspi_receive + 204
        0x2000093c:    680b        .h      LDR      r3,[r1,#0]
        0x2000093e:    f0130f06    ....    TST      r3,#6
        0x20000942:    d107        ..      BNE      0x20000954 ; qspi_receive + 204
        0x20000944:    680b        .h      LDR      r3,[r1,#0]
        0x20000946:    f0130f06    ....    TST      r3,#6
        0x2000094a:    d103        ..      BNE      0x20000954 ; qspi_receive + 204
        0x2000094c:    680b        .h      LDR      r3,[r1,#0]
        0x2000094e:    f0130f06    ....    TST      r3,#6
        0x20000952:    d0ef        ..      BEQ      0x20000934 ; qspi_receive + 172
        0x20000954:    7e0b        .~      LDRB     r3,[r1,#0x18]
        0x20000956:    7083        .p      STRB     r3,[r0,#2]
        0x20000958:    680b        .h      LDR      r3,[r1,#0]
        0x2000095a:    f0130f06    ....    TST      r3,#6
        0x2000095e:    d10b        ..      BNE      0x20000978 ; qspi_receive + 240
        0x20000960:    680b        .h      LDR      r3,[r1,#0]
        0x20000962:    f0130f06    ....    TST      r3,#6
        0x20000966:    d107        ..      BNE      0x20000978 ; qspi_receive + 240
        0x20000968:    680b        .h      LDR      r3,[r1,#0]
        0x2000096a:    f0130f06    ....    TST      r3,#6
        0x2000096e:    d103        ..      BNE      0x20000978 ; qspi_receive + 240
        0x20000970:    680b        .h      LDR      r3,[r1,#0]
        0x20000972:    f0130f06    ....    TST      r3,#6
        0x20000976:    d0ef        ..      BEQ      0x20000958 ; qspi_receive + 208
        0x20000978:    7e0b        .~      LDRB     r3,[r1,#0x18]
        0x2000097a:    3a04        .:      SUBS     r2,#4
        0x2000097c:    70c3        .p      STRB     r3,[r0,#3]
        0x2000097e:    f1000004    ....    ADD      r0,r0,#4
        0x20000982:    d1b3        ..      BNE      0x200008ec ; qspi_receive + 100
        0x20000984:    6808        .h      LDR      r0,[r1,#0]
        0x20000986:    0780        ..      LSLS     r0,r0,#30
        0x20000988:    d409        ..      BMI      0x2000099e ; qspi_receive + 278
        0x2000098a:    6808        .h      LDR      r0,[r1,#0]
        0x2000098c:    0780        ..      LSLS     r0,r0,#30
        0x2000098e:    bf5c        \.      ITT      PL
        0x20000990:    6808        .h      LDRPL    r0,[r1,#0]
        0x20000992:    ea5f7080    _..p    LSLSPL   r0,r0,#30
        0x20000996:    d402        ..      BMI      0x2000099e ; qspi_receive + 278
        0x20000998:    6808        .h      LDR      r0,[r1,#0]
        0x2000099a:    0780        ..      LSLS     r0,r0,#30
        0x2000099c:    d5f2        ..      BPL      0x20000984 ; qspi_receive + 252
        0x2000099e:    2002        .       MOVS     r0,#2
        0x200009a0:    6048        H`      STR      r0,[r1,#4]
        0x200009a2:    bd10        ..      POP      {r4,pc}
        0x200009a4:    680a        .h      LDR      r2,[r1,#0]
        0x200009a6:    f0120f06    ....    TST      r2,#6
        0x200009aa:    d10b        ..      BNE      0x200009c4 ; qspi_receive + 316
        0x200009ac:    680a        .h      LDR      r2,[r1,#0]
        0x200009ae:    f0120f06    ....    TST      r2,#6
        0x200009b2:    d107        ..      BNE      0x200009c4 ; qspi_receive + 316
        0x200009b4:    680a        .h      LDR      r2,[r1,#0]
        0x200009b6:    f0120f06    ....    TST      r2,#6
        0x200009ba:    d103        ..      BNE      0x200009c4 ; qspi_receive + 316
        0x200009bc:    680a        .h      LDR      r2,[r1,#0]
        0x200009be:    f0120f06    ....    TST      r2,#6
        0x200009c2:    d0ef        ..      BEQ      0x200009a4 ; qspi_receive + 284
        0x200009c4:    7e0a        .~      LDRB     r2,[r1,#0x18]
        0x200009c6:    f1bc0f02    ....    CMP      r12,#2
        0x200009ca:    7042        Bp      STRB     r2,[r0,#1]
        0x200009cc:    d106        ..      BNE      0x200009dc ; qspi_receive + 340
        0x200009ce:    3002        .0      ADDS     r0,#2
        0x200009d0:    f1ae0201    ....    SUB      r2,lr,#1
        0x200009d4:    f1be0f03    ....    CMP      lr,#3
        0x200009d8:    d3d4        ..      BCC      0x20000984 ; qspi_receive + 252
        0x200009da:    e787        ..      B        0x200008ec ; qspi_receive + 100
        0x200009dc:    680a        .h      LDR      r2,[r1,#0]
        0x200009de:    f0120f06    ....    TST      r2,#6
        0x200009e2:    d10b        ..      BNE      0x200009fc ; qspi_receive + 372
        0x200009e4:    680a        .h      LDR      r2,[r1,#0]
        0x200009e6:    f0120f06    ....    TST      r2,#6
        0x200009ea:    d107        ..      BNE      0x200009fc ; qspi_receive + 372
        0x200009ec:    680a        .h      LDR      r2,[r1,#0]
        0x200009ee:    f0120f06    ....    TST      r2,#6
        0x200009f2:    d103        ..      BNE      0x200009fc ; qspi_receive + 372
        0x200009f4:    680a        .h      LDR      r2,[r1,#0]
        0x200009f6:    f0120f06    ....    TST      r2,#6
        0x200009fa:    d0ef        ..      BEQ      0x200009dc ; qspi_receive + 340
        0x200009fc:    7e0a        .~      LDRB     r2,[r1,#0x18]
        0x200009fe:    7082        .p      STRB     r2,[r0,#2]
        0x20000a00:    3003        .0      ADDS     r0,#3
        0x20000a02:    f1ae0202    ....    SUB      r2,lr,#2
        0x20000a06:    f1be0f03    ....    CMP      lr,#3
        0x20000a0a:    d3bb        ..      BCC      0x20000984 ; qspi_receive + 252
        0x20000a0c:    e76e        n.      B        0x200008ec ; qspi_receive + 100
        0x20000a0e:    0000        ..      MOVS     r0,r0
    qspi_transmit
        0x20000a10:    f6450108    E...    MOV      r1,#0x5808
        0x20000a14:    f2c40102    ....    MOVT     r1,#0x4002
        0x20000a18:    f8d1c008    ....    LDR      r12,[r1,#8]
        0x20000a1c:    68cb        .h      LDR      r3,[r1,#0xc]
        0x20000a1e:    f11c0201    ....    ADDS     r2,r12,#1
        0x20000a22:    f0236340    #.@c    BIC      r3,r3,#0xc000000
        0x20000a26:    60cb        .`      STR      r3,[r1,#0xc]
        0x20000a28:    f0008088    ....    BEQ.W    0x20000b3c ; qspi_transmit + 300
        0x20000a2c:    b580        ..      PUSH     {r7,lr}
        0x20000a2e:    f0120e03    ....    ANDS     lr,r2,#3
        0x20000a32:    d02a        *.      BEQ      0x20000a8a ; qspi_transmit + 122
        0x20000a34:    680a        .h      LDR      r2,[r1,#0]
        0x20000a36:    0752        R.      LSLS     r2,r2,#29
        0x20000a38:    d409        ..      BMI      0x20000a4e ; qspi_transmit + 62
        0x20000a3a:    680a        .h      LDR      r2,[r1,#0]
        0x20000a3c:    0752        R.      LSLS     r2,r2,#29
        0x20000a3e:    bf5c        \.      ITT      PL
        0x20000a40:    680a        .h      LDRPL    r2,[r1,#0]
        0x20000a42:    ea5f7242    _.Br    LSLSPL   r2,r2,#29
        0x20000a46:    d402        ..      BMI      0x20000a4e ; qspi_transmit + 62
        0x20000a48:    680a        .h      LDR      r2,[r1,#0]
        0x20000a4a:    0752        R.      LSLS     r2,r2,#29
        0x20000a4c:    d5f2        ..      BPL      0x20000a34 ; qspi_transmit + 36
        0x20000a4e:    4603        .F      MOV      r3,r0
        0x20000a50:    f8132b01    ...+    LDRB     r2,[r3],#1
        0x20000a54:    f1be0f01    ....    CMP      lr,#1
        0x20000a58:    760a        .v      STRB     r2,[r1,#0x18]
        0x20000a5a:    4662        bF      MOV      r2,r12
        0x20000a5c:    d029        ).      BEQ      0x20000ab2 ; qspi_transmit + 162
        0x20000a5e:    680a        .h      LDR      r2,[r1,#0]
        0x20000a60:    0752        R.      LSLS     r2,r2,#29
        0x20000a62:    d409        ..      BMI      0x20000a78 ; qspi_transmit + 104
        0x20000a64:    680a        .h      LDR      r2,[r1,#0]
        0x20000a66:    0752        R.      LSLS     r2,r2,#29
        0x20000a68:    bf5c        \.      ITT      PL
        0x20000a6a:    680a        .h      LDRPL    r2,[r1,#0]
        0x20000a6c:    ea5f7242    _.Br    LSLSPL   r2,r2,#29
        0x20000a70:    d402        ..      BMI      0x20000a78 ; qspi_transmit + 104
        0x20000a72:    680a        .h      LDR      r2,[r1,#0]
        0x20000a74:    0752        R.      LSLS     r2,r2,#29
        0x20000a76:    d5f2        ..      BPL      0x20000a5e ; qspi_transmit + 78
        0x20000a78:    7842        Bx      LDRB     r2,[r0,#1]
        0x20000a7a:    f1be0f02    ....    CMP      lr,#2
        0x20000a7e:    760a        .v      STRB     r2,[r1,#0x18]
        0x20000a80:    d105        ..      BNE      0x20000a8e ; qspi_transmit + 126
        0x20000a82:    1c83        ..      ADDS     r3,r0,#2
        0x20000a84:    f1ac0201    ....    SUB      r2,r12,#1
        0x20000a88:    e013        ..      B        0x20000ab2 ; qspi_transmit + 162
        0x20000a8a:    4603        .F      MOV      r3,r0
        0x20000a8c:    e011        ..      B        0x20000ab2 ; qspi_transmit + 162
        0x20000a8e:    680a        .h      LDR      r2,[r1,#0]
        0x20000a90:    0752        R.      LSLS     r2,r2,#29
        0x20000a92:    d409        ..      BMI      0x20000aa8 ; qspi_transmit + 152
        0x20000a94:    680a        .h      LDR      r2,[r1,#0]
        0x20000a96:    0752        R.      LSLS     r2,r2,#29
        0x20000a98:    bf5c        \.      ITT      PL
        0x20000a9a:    680a        .h      LDRPL    r2,[r1,#0]
        0x20000a9c:    ea5f7242    _.Br    LSLSPL   r2,r2,#29
        0x20000aa0:    d402        ..      BMI      0x20000aa8 ; qspi_transmit + 152
        0x20000aa2:    680a        .h      LDR      r2,[r1,#0]
        0x20000aa4:    0752        R.      LSLS     r2,r2,#29
        0x20000aa6:    d5f2        ..      BPL      0x20000a8e ; qspi_transmit + 126
        0x20000aa8:    7882        .x      LDRB     r2,[r0,#2]
        0x20000aaa:    1cc3        ..      ADDS     r3,r0,#3
        0x20000aac:    760a        .v      STRB     r2,[r1,#0x18]
        0x20000aae:    f1ac0202    ....    SUB      r2,r12,#2
        0x20000ab2:    f1bc0f03    ....    CMP      r12,#3
        0x20000ab6:    e8bd4080    ...@    POP      {r7,lr}
        0x20000aba:    d33f        ?.      BCC      0x20000b3c ; qspi_transmit + 300
        0x20000abc:    6808        .h      LDR      r0,[r1,#0]
        0x20000abe:    0740        @.      LSLS     r0,r0,#29
        0x20000ac0:    bf5c        \.      ITT      PL
        0x20000ac2:    6808        .h      LDRPL    r0,[r1,#0]
        0x20000ac4:    ea5f7040    _.@p    LSLSPL   r0,r0,#29
        0x20000ac8:    d405        ..      BMI      0x20000ad6 ; qspi_transmit + 198
        0x20000aca:    6808        .h      LDR      r0,[r1,#0]
        0x20000acc:    0740        @.      LSLS     r0,r0,#29
        0x20000ace:    d402        ..      BMI      0x20000ad6 ; qspi_transmit + 198
        0x20000ad0:    6808        .h      LDR      r0,[r1,#0]
        0x20000ad2:    0740        @.      LSLS     r0,r0,#29
        0x20000ad4:    d5f2        ..      BPL      0x20000abc ; qspi_transmit + 172
        0x20000ad6:    7818        .x      LDRB     r0,[r3,#0]
        0x20000ad8:    7608        .v      STRB     r0,[r1,#0x18]
        0x20000ada:    6808        .h      LDR      r0,[r1,#0]
        0x20000adc:    0740        @.      LSLS     r0,r0,#29
        0x20000ade:    d409        ..      BMI      0x20000af4 ; qspi_transmit + 228
        0x20000ae0:    6808        .h      LDR      r0,[r1,#0]
        0x20000ae2:    0740        @.      LSLS     r0,r0,#29
        0x20000ae4:    bf5c        \.      ITT      PL
        0x20000ae6:    6808        .h      LDRPL    r0,[r1,#0]
        0x20000ae8:    ea5f7040    _.@p    LSLSPL   r0,r0,#29
        0x20000aec:    d402        ..      BMI      0x20000af4 ; qspi_transmit + 228
        0x20000aee:    6808        .h      LDR      r0,[r1,#0]
        0x20000af0:    0740        @.      LSLS     r0,r0,#29
        0x20000af2:    d5f2        ..      BPL      0x20000ada ; qspi_transmit + 202
        0x20000af4:    7858        Xx      LDRB     r0,[r3,#1]
        0x20000af6:    7608        .v      STRB     r0,[r1,#0x18]
        0x20000af8:    6808        .h      LDR      r0,[r1,#0]
        0x20000afa:    0740        @.      LSLS     r0,r0,#29
        0x20000afc:    d409        ..      BMI      0x20000b12 ; qspi_transmit + 258
        0x20000afe:    6808        .h      LDR      r0,[r1,#0]
        0x20000b00:    0740        @.      LSLS     r0,r0,#29
        0x20000b02:    bf5c        \.      ITT      PL
        0x20000b04:    6808        .h      LDRPL    r0,[r1,#0]
        0x20000b06:    ea5f7040    _.@p    LSLSPL   r0,r0,#29
        0x20000b0a:    d402        ..      BMI      0x20000b12 ; qspi_transmit + 258
        0x20000b0c:    6808        .h      LDR      r0,[r1,#0]
        0x20000b0e:    0740        @.      LSLS     r0,r0,#29
        0x20000b10:    d5f2        ..      BPL      0x20000af8 ; qspi_transmit + 232
        0x20000b12:    7898        .x      LDRB     r0,[r3,#2]
        0x20000b14:    7608        .v      STRB     r0,[r1,#0x18]
        0x20000b16:    6808        .h      LDR      r0,[r1,#0]
        0x20000b18:    0740        @.      LSLS     r0,r0,#29
        0x20000b1a:    d409        ..      BMI      0x20000b30 ; qspi_transmit + 288
        0x20000b1c:    6808        .h      LDR      r0,[r1,#0]
        0x20000b1e:    0740        @.      LSLS     r0,r0,#29
        0x20000b20:    bf5c        \.      ITT      PL
        0x20000b22:    6808        .h      LDRPL    r0,[r1,#0]
        0x20000b24:    ea5f7040    _.@p    LSLSPL   r0,r0,#29
        0x20000b28:    d402        ..      BMI      0x20000b30 ; qspi_transmit + 288
        0x20000b2a:    6808        .h      LDR      r0,[r1,#0]
        0x20000b2c:    0740        @.      LSLS     r0,r0,#29
        0x20000b2e:    d5f2        ..      BPL      0x20000b16 ; qspi_transmit + 262
        0x20000b30:    78d8        .x      LDRB     r0,[r3,#3]
        0x20000b32:    3304        .3      ADDS     r3,#4
        0x20000b34:    3a04        .:      SUBS     r2,#4
        0x20000b36:    7608        .v      STRB     r0,[r1,#0x18]
        0x20000b38:    d1c0        ..      BNE      0x20000abc ; qspi_transmit + 172
        0x20000b3a:    bf00        ..      NOP      
        0x20000b3c:    6808        .h      LDR      r0,[r1,#0]
        0x20000b3e:    0780        ..      LSLS     r0,r0,#30
        0x20000b40:    d409        ..      BMI      0x20000b56 ; qspi_transmit + 326
        0x20000b42:    6808        .h      LDR      r0,[r1,#0]
        0x20000b44:    0780        ..      LSLS     r0,r0,#30
        0x20000b46:    bf5c        \.      ITT      PL
        0x20000b48:    6808        .h      LDRPL    r0,[r1,#0]
        0x20000b4a:    ea5f7080    _..p    LSLSPL   r0,r0,#30
        0x20000b4e:    d402        ..      BMI      0x20000b56 ; qspi_transmit + 326
        0x20000b50:    6808        .h      LDR      r0,[r1,#0]
        0x20000b52:    0780        ..      LSLS     r0,r0,#30
        0x20000b54:    d5f2        ..      BPL      0x20000b3c ; qspi_transmit + 300
        0x20000b56:    2002        .       MOVS     r0,#2
        0x20000b58:    6048        H`      STR      r0,[r1,#4]
        0x20000b5a:    4770        pG      BX       lr
    $t
    $Ven$TT$L$$rcu_periph_clock_enable
        0x20000b5c:    f2421c35    B.5.    MOV      r12,#0x2135
        0x20000b60:    f6c00c00    ....    MOVT     r12,#0x800
        0x20000b64:    4760        `G      BX       r12
    $Ven$TT$L$$gpio_af_set
        0x20000b66:    f6410c4d    A.M.    MOV      r12,#0x184d
        0x20000b6a:    f6c00c00    ....    MOVT     r12,#0x800
        0x20000b6e:    4760        `G      BX       r12
    $Ven$TT$L$$gpio_mode_set
        0x20000b70:    f6411c21    A.!.    MOV      r12,#0x1921
        0x20000b74:    f6c00c00    ....    MOVT     r12,#0x800
        0x20000b78:    4760        `G      BX       r12
    $Ven$TT$L$$gpio_output_options_set
        0x20000b7a:    f6412c99    A..,    MOV      r12,#0x1a99
        0x20000b7e:    f6c00c00    ....    MOVT     r12,#0x800
        0x20000b82:    4760        `G      BX       r12

** Section #3 'MBL_DATA' (SHT_PROGBITS) [SHF_ALLOC + SHF_WRITE]
    Size   : 8 bytes (alignment 16)
    Address: 0x20000b90

    0x20000b90:   01 00 00 00 03 00 00 00                            ........


** Section #4 'MBL_DATA' (SHT_NOBITS) [SHF_ALLOC + SHF_WRITE]
    Size   : 4100 bytes (alignment 4)
    Address: 0x20000b98


** Section #5 'ARM_LIB_STACKHEAP' (SHT_NOBITS) [SHF_ALLOC + SHF_WRITE]
    Size   : 4096 bytes (alignment 16)
    Address: 0x20001ba0


** Section #6 'MBL_API' (SHT_PROGBITS) [SHF_ALLOC]
    Size   : 256 bytes (alignment 4)
    Address: 0x08007c00

    0x8007c00:   21 2d 00 08 05 26 00 08 cd 27 00 08 55 2c 00 08    !-...&...'..U,..
    0x8007c10:   95 21 00 08 01 2f 00 08 05 22 00 08 91 22 00 08    .!.../..."..."..
    0x8007c20:   b9 21 00 08 25 2f 00 08 75 0c 00 08 fd 0f 00 08    .!..%/..u.......
    0x8007c30:   35 0b 00 08 89 0a 00 08 00 00 00 00 00 00 00 00    5...............
    0x8007c40:   00 00 00 00 00 00 00 00 00 00 00 00 00 00 00 00    ................
    0x8007c50:   00 00 00 00 00 00 00 00 00 00 00 00 00 00 00 00    ................
    0x8007c60:   00 00 00 00 00 00 00 00 00 00 00 00 00 00 00 00    ................
    0x8007c70:   00 00 00 00 00 00 00 00 00 00 00 00 00 00 00 00    ................
    0x8007c80:   00 00 00 00 00 00 00 00 00 00 00 00 00 00 00 00    ................
    0x8007c90:   00 00 00 00 00 00 00 00 00 00 00 00 00 00 00 00    ................
    0x8007ca0:   00 00 00 00 00 00 00 00 00 00 00 00 00 00 00 00    ................
    0x8007cb0:   00 00 00 00 00 00 00 00 00 00 00 00 00 00 00 00    ................
    0x8007cc0:   00 00 00 00 00 00 00 00 00 00 00 00 00 00 00 00    ................
    0x8007cd0:   00 00 00 00 00 00 00 00 00 00 00 00 00 00 00 00    ................
    0x8007ce0:   00 00 00 00 00 00 00 00 00 00 00 00 00 00 00 00    ................
    0x8007cf0:   00 00 00 00 00 00 00 00 00 00 00 00 00 00 00 00    ................


** Section #7 '.debug_abbrev' (SHT_PROGBITS)
    Size   : 5463 bytes


** Section #8 '.debug_frame' (SHT_PROGBITS)
    Size   : 6644 bytes


** Section #9 '.debug_info' (SHT_PROGBITS)
    Size   : 32460 bytes


** Section #10 '.debug_line' (SHT_PROGBITS)
    Size   : 29604 bytes


** Section #11 '.debug_loc' (SHT_PROGBITS)
    Size   : 21338 bytes


** Section #12 '.debug_str' (SHT_PROGBITS)
    Size   : 23643 bytes


** Section #13 '.debug_ranges' (SHT_PROGBITS)
    Size   : 4784 bytes


** Section #14 '.symtab' (SHT_SYMTAB)
    Size   : 14032 bytes (alignment 4)
    String table #15 '.strtab'
    Last local symbol no. 108


** Section #15 '.strtab' (SHT_STRTAB)
    Size   : 18952 bytes


** Section #16 '.note' (SHT_NOTE)
    Size   : 40 bytes (alignment 4)


** Section #17 '.comment' (SHT_PROGBITS)
    Size   : 1464 bytes


** Section #18 '.shstrtab' (SHT_STRTAB)
    Size   : 188 bytes


